(dp0
VPpron
p1
(lp2
Vhed
p3
aVhe'd
p4
aVher
p5
aVhers
p6
aVherself
p7
aVhes
p8
aVhe's
p9
aVhim
p10
aVhimself
p11
aVhis
p12
aVi
p13
aVId
p14
aVI'd
p15
aVI'll
p16
aVIm
p17
aVI'm
p18
aVive
p19
aVI've
p20
aVlets
p21
aVlet's
p22
aVme
p23
aVmine
p24
aVmy
p25
aVmyself
p26
aVoneself
p27
aVour
p28
aVours
p29
aVourselves
p30
aVshe
p31
aVshe'd
p32
aVshe'll
p33
aVshes
p34
aVshe's
p35
aVthee
p36
aVtheir*
p37
aVthem
p38
aVthemselves
p39
aVthey
p40
aVtheyd
p41
aVthey'd
p42
aVtheyll
p43
aVthey'll
p44
aVtheyve
p45
aVthey've
p46
aVthine
p47
aVthou
p48
aVthoust
p49
aVthy
p50
aVus
p51
aVwe
p52
aVwe'd
p53
aVwe'll
p54
aVwe're
p55
aVweve
p56
aVwe've
p57
aVya
p58
aVyall
p59
aVy'all
p60
aVye
p61
aVyou
p62
aVyoud
p63
aVyou'd
p64
aVyoull
p65
aVyou'll
p66
aVyour
p67
aVyoure
p68
aVyou're
p69
aVyours
p70
aVyouve
p71
aVyou've
p72
asVInhib
p73
(lp74
Vabandon*
p75
aVabstain*
p76
aVanal
p77
aVavert*
p78
aVavoid*
p79
aVban
p80
aVbanned
p81
aVbanning
p82
aVbans
p83
aVbarrier*
p84
aVbinding
p85
aVblock
p86
aVblocked
p87
aVblocker*
p88
aVblocking
p89
aVblocks
p90
aVbound*
p91
aVbrake*
p92
aVbridle*
p93
aVcareful*
p94
aVcaut*
p95
aVcease*
p96
aVceasing
p97
aVcompulsiv*
p98
aVconfin*
p99
aVconflict*
p100
aVconserv*
p101
aVconstrain*
p102
aVconstrict*
p103
aVcontain*
p104
aVcontradic*
p105
aVcontrol*
p106
aVcurb*
p107
aVcurtail*
p108
aVdefenc*
p109
aVdefens*
p110
aVdelay*
p111
aVdenia*
p112
aVdenie*
p113
aVdeny*
p114
aVdisciplin*
p115
aVdiscourag*
p116
aVdisregard*
p117
aVduti*
p118
aVduty
p119
aVenclos*
p120
aVfenc*
p121
aVforbid*
p122
aVforgot*
p123
aVguard*
p124
aVhalt*
p125
aVhangup*
p126
aVharness*
p127
aVheld
p128
aVhesita*
p129
aVhold*
p130
aVignor*
p131
aVinhib*
p132
aVinterfer*
p133
aVkeep
p134
aVkeeping*
p135
aVkeeps
p136
aVkept
p137
aVlimit*
p138
aVneglect*
p139
aVobstac*
p140
aVoppos*
p141
aVprevent*
p142
aVprohib*
p143
aVprotect*
p144
aVprude
p145
aVprudes
p146
aVprudish*
p147
aVrefrain*
p148
aVrefus*
p149
aVrein*
p150
aVreluctan*
p151
aVrepress*
p152
aVrequir*
p153
aVreserved
p154
aVresponsib*
p155
aVrestrain*
p156
aVrestrict*
p157
aVretain*
p158
aVrigid*
p159
aVsafe*
p160
aVsecur*
p161
aVstiff*
p162
aVstop
p163
aVstopped
p164
aVstopper*
p165
aVstopping
p166
aVstops
p167
aVstubborn*
p168
aVsubdue*
p169
aVsuppress*
p170
aVtaboo*
p171
aVtidi*
p172
aVtidy
p173
aVtight*
p174
aVuptight*
p175
aVveto
p176
aVwait
p177
aVwaited
p178
aVwaiting
p179
aVwaits
p180
aVwariness
p181
aVwary
p182
aVwithheld
p183
aVwithhold*
p184
aVyield*
p185
asVSpace
p186
(lp187
Vabove
p188
aVacross
p189
aVair
p190
aVamong*
p191
aVanywhere
p192
aVapart
p193
aVarea*
p194
aVaround
p195
aVat
p196
aVatop
p197
aVaway
p198
aVbackward*
p199
aVbelow
p200
aVbend
p201
aVbending
p202
aVbends
p203
aVbeneath
p204
aVbent
p205
aVbeside
p206
aVbeyond
p207
aVbig
p208
aVbigger
p209
aVbiggest
p210
aVboth
p211
aVbottom*
p212
aVbreadth
p213
aVbrink
p214
aVbroad*
p215
aVcapacit*
p216
aVceiling*
p217
aVcenter*
p218
aVcentre*
p219
aVcity
p220
aVclose
p221
aVclosed
p222
aVcloser
p223
aVclosest
p224
aVconnection*
p225
aVcorner
p226
aVcorners
p227
aVcountr*
p228
aVcoverage
p229
aVdeep*
p230
aVdense
p231
aVdensit*
p232
aVdepth*
p233
aVdiagonal*
p234
aVdistan*
p235
aVdown
p236
aVdownward*
p237
aVeast*
p238
aVedge
p239
aVedges
p240
aVedging
p241
aVempt*
p242
ag120
aVencompass*
p243
aVenorm*
p244
aVentrance*
p245
aVenvironment*
p246
aVeverywhere
p247
aVexit*
p248
aVexterior*
p249
aVfar
p250
aVfarther
p251
aVfarthest
p252
aVfit
p253
aVfloor*
p254
aVforward*
p255
aVfull*
p256
aVfurther*
p257
aVgiant*
p258
aVgigantic
p259
aVginormous
p260
aVglobal*
p261
aVground*
p262
aVhall
p263
aVheight*
p264
aVhigh
p265
aVhighe*
p266
aVhorizontal*
p267
aVhuge*
p268
aVin
p269
aVinch*
p270
aVinner*
p271
aVinside
p272
aVinsides
p273
aVinterior*
p274
aVinternal*
p275
aVinternation*
p276
aVintersect*
p277
aVinto
p278
aVkilometer*
p279
aVkm*
p280
aVland
p281
aVlarge*
p282
aVledge*
p283
aVledging
p284
aVleft
p285
aVlevel
p286
aVlevels
p287
aVlittl*
p288
aVlocal*
p289
aVlongitud*
p290
aVlow*
p291
aVmap
p292
aVmapped
p293
aVmapping
p294
aVmaps
p295
aVmass
p296
aVmeter*
p297
aVmetre*
p298
aVmid
p299
aVmiddl*
p300
aVmile*
p301
aVnarrow*
p302
aVnation*
p303
aVnear
p304
aVneared
p305
aVnearer
p306
aVnearest
p307
aVnearing
p308
aVnears
p309
aVnorth*
p310
aVnowhere
p311
aVoff
p312
aVon
p313
aVonto
p314
aVopen
p315
aVopened
p316
aVopening*
p317
aVout
p318
aVouter*
p319
aVoutside
p320
aVoutsides
p321
aVoutward*
p322
aVover
p323
aVoverflow*
p324
aVoverlap*
p325
aVplace*
p326
aVplacing*
p327
aVplatform*
p328
aVpoint
p329
aVposition*
p330
aVremote*
p331
aVright
p332
aVroad*
p333
aVroom
p334
aVroomate*
p335
aVroomed
p336
aVroomie*
p337
aVrooming
p338
aVroommate*
p339
aVrooms
p340
aVsection
p341
aVsegment
p342
aVseparat*
p343
aVshape*
p344
aVshaping*
p345
aVshort*
p346
aVshut
p347
aVside
p348
aVsides
p349
aVsiding
p350
aVsite
p351
aVsky*
p352
aVsmall*
p353
aVsomewhere
p354
aVsouth*
p355
aVspace
p356
aVspaced
p357
aVspaces
p358
aVspaci*
p359
aVspan
p360
aVspann*
p361
aVstair*
p362
aVstraight
p363
aVstreet*
p364
aVstretch*
p365
aVsurfac*
p366
aVsurround*
p367
aVtall
p368
aVtaller
p369
aVtallest
p370
aVterritor*
p371
aVthick*
p372
aVthin
p373
aVthinly
p374
aVthinn*
p375
aVtinier
p376
aVtiniest
p377
aVtiny
p378
aVtogether
p379
aVtop
p380
aVtoward*
p381
aVtown
p382
aVunder
p383
aVunderneath
p384
aVundersid*
p385
aVuniverse*
p386
aVup
p387
aVupon
p388
aVupper
p389
aVuppermost
p390
aVupstairs
p391
aVvast*
p392
aVverg*
p393
aVvertical*
p394
aVwall
p395
aVwalling
p396
aVwalls
p397
aVwest*
p398
aVwhere
p399
aVwheres
p400
aVwhere's
p401
aVwherever
p402
aVwide*
p403
aVwidth*
p404
aVwithin
p405
aVworld
p406
asVFiller
p407
(lp408
Vblah
p409
aVidontknow
p410
aVimean
p411
aVlike
p412
aVohwell
p413
aVrr*
p414
aVyakno*
p415
aVykn*
p416
aVyouknow
p417
asVIpron
p418
(lp419
Vanybod*
p420
aVanyone*
p421
aVanything
p422
aVeverybod*
p423
aVeveryone*
p424
aVeverything*
p425
aVit
p426
aVitd
p427
aVit'd
p428
aVitll
p429
aVit'll
p430
aVits
p431
aVit's
p432
aVitself
p433
aVnobod*
p434
aVother
p435
aVothers
p436
aVsomebod*
p437
aVsomeone*
p438
aVsomething*
p439
ag354
aVstuff
p440
aVthat
p441
aVthatd
p442
aVthat'd
p443
aVthatll
p444
aVthat'll
p445
aVthats
p446
aVthat's
p447
aVthese
p448
aVthing*
p449
aVthis
p450
aVthose
p451
aVwhat
p452
aVwhatever
p453
aVwhats
p454
aVwhat's
p455
aVwhich
p456
aVwhichever
p457
aVwho
p458
aVwhod
p459
aVwho'd
p460
aVwholl
p461
aVwho'll
p462
aVwhom
p463
aVwhose
p464
asVTime
p465
(lp466
Vabrupt*
p467
aVafter
p468
aVafterlife*
p469
aVaftermath*
p470
aVafternoon*
p471
aVafterthought*
p472
aVafterward*
p473
aVagain
p474
aVage
p475
aVaged
p476
aVages
p477
aVaging
p478
aVago
p479
aVahead
p480
aValready
p481
aValways
p482
aVancient*
p483
aVannual*
p484
aVanymore
p485
aVanytime
p486
aVapril
p487
aVaugust
p488
aVautumn
p489
aVawhile
p490
aVback
p491
aVbefore
p492
aVbegan
p493
aVbegin
p494
aVbeginn*
p495
aVbegins
p496
aVbegun
p497
aVbiannu*
p498
aVbimonth*
p499
aVbirth*
p500
aVbiweek*
p501
aVborn
p502
aVbusy
p503
aVbye
p504
ag96
ag97
aVcentur*
p505
aVchildhood
p506
aVchristmas*
p507
aVclock*
p508
aVcommon
p509
aVconstant
p510
aVconstantly
p511
aVcontinu*
p512
aVcurrent*
p513
aVcycle*
p514
aVdail*
p515
aVdate*
p516
aVday*
p517
aVdecade*
p518
aVdecay*
p519
aVdecember
p520
ag111
aVdue
p521
aVduring
p522
aVearli*
p523
aVearly
p524
aVend
p525
aVended
p526
aVending
p527
aVends
p528
aVera
p529
aVetern*
p530
aVeve
p531
aVevening*
p532
aVevent
p533
aVeventually
p534
aVever
p535
aVeveryday
p536
aVfade*
p537
aVfading*
p538
aVfast
p539
aVfaster
p540
aVfastest
p541
aVfebruary
p542
aVfinal
p543
aVfinally
p544
aVfinish*
p545
aVfirst
p546
aVfirstly
p547
aVfirsts
p548
aVfollowup*
p549
aVforever
p550
aVformer*
p551
ag255
aVfrequent
p552
aVfrequented
p553
aVfrequenting
p554
aVfrequently
p555
aVfrequents
p556
aVFriday*
p557
aVfutur*
p558
aVgeneration*
p559
aVhappening
p560
aVhistor*
p561
aVhour*
p562
aVhurrie*
p563
aVhurry*
p564
aVimmediate
p565
aVimmediately
p566
aVimmediateness
p567
aVimmortal*
p568
aVinciden*
p569
aVinfinit*
p570
aVinitial*
p571
aVinitiat*
p572
aVinstan*
p573
aVinterval*
p574
aVjanuary
p575
aVjuly
p576
aVjune
p577
aVlast*
p578
aVlate
p579
aVlately
p580
aVlater
p581
aVlatest
p582
ag412
aVlong
p583
aVlonge*
p584
aVmarch*
p585
aVmeantime
p586
aVmeanwhile
p587
aVmin
p588
aVminute*
p589
aVmodern*
p590
aVmoment*
p591
aVmonday*
p592
aVmonth*
p593
aVmorning*
p594
aVnever
p595
aVnew
p596
aVnewer
p597
aVnewest
p598
aVnewly
p599
aVnext
p600
aVnight
p601
aVnightly
p602
aVnights
p603
aVnoon*
p604
aVnovember
p605
aVnow
p606
aVoccasional*
p607
aVoclock*
p608
aVo'clock*
p609
aVoctober
p610
aVold
p611
aVolden
p612
aVolder
p613
aVoldest
p614
aVonce
p615
aVorigin
p616
aVpast
p617
aVperiod*
p618
aVperpetual*
p619
aVpreced*
p620
aVpresent
p621
aVpresently
p622
aVprior
p623
aVproceed*
p624
aVquick*
p625
aVrecency
p626
aVrecent*
p627
aVrecur*
p628
aVrepeat*
p629
aVrepetit*
p630
aVrespectively
p631
aVreturn*
p632
aVrhythm*
p633
aVsaturday*
p634
aVschedul*
p635
aVseason*
p636
aVseconds
p637
aVsenior*
p638
aVseptember*
p639
aVsequen*
p640
aVsimultaneous*
p641
aVslow*
p642
aVsometime
p643
aVsometimes
p644
aVsoon
p645
aVsoone*
p646
aVsped
p647
aVspeed*
p648
aVspring
p649
aVstart
p650
aVstarted
p651
aVstarter*
p652
aVstarting
p653
aVstarts
p654
aVstartup*
p655
aVstill
p656
ag163
ag164
ag165
ag166
ag167
aVsubsequen*
p657
aVsudden*
p658
aVsummer*
p659
aVsunday*
p660
aVsynch*
p661
aVtempora*
p662
aVterm
p663
aVterminat*
p664
aVthen
p665
aVthursday*
p666
aVtil
p667
aVtill
p668
aVtime*
p669
aVtiming
p670
aVtoday*
p671
aVtomorrow*
p672
aVtonight*
p673
aVtuesday*
p674
aVuntil
p675
aVupdat*
p676
aVusual
p677
aVusually
p678
aVwednesday*
p679
aVweek
p680
aVweek'*
p681
aVweekend*
p682
aVweekl*
p683
aVweeks
p684
aVwhen
p685
aVwhenever
p686
aVwhile
p687
aVwhilst
p688
aVwinter*
p689
aVyear
p690
aVyearly
p691
aVyears
p692
aVyesterday*
p693
aVyet
p694
aVyoung*
p695
aVyouth*
p696
asVPercept
p697
(lp698
Vacid*
p699
aVacrid*
p700
aVaroma*
p701
aVaudibl*
p702
aVaudio*
p703
aVbeaut*
p704
aVbitter*
p705
aVblack
p706
aVblacke*
p707
aVblackish*
p708
aVblacks
p709
aVblind*
p710
aVblond*
p711
aVblue*
p712
aVboom*
p713
aVbright*
p714
aVbrown*
p715
aVbrush*
p716
aVbutter*
p717
aVcandle*
p718
aVcaramel*
p719
aVcaress*
p720
aVchocolate*
p721
aVchoir*
p722
aVcircle
p723
aVcitrus*
p724
aVclick*
p725
aVcold*
p726
aVcologne*
p727
aVcolor*
p728
aVcolour*
p729
aVcolumn*
p730
aVconcert*
p731
aVcool*
p732
aVcream
p733
aVdeaf*
p734
aVdelectabl*
p735
aVdelicious*
p736
aVdeoder*
p737
aVdrie*
p738
aVdrily
p739
aVdrool*
p740
aVdry*
p741
aVear
p742
aVears
p743
ag239
ag240
ag241
aVexperienc*
p744
aVeye*
p745
aVeying
p746
aVfeel
p747
aVfeeling*
p748
aVfeels
p749
aVfelt
p750
aVfetid*
p751
aVfinger*
p752
aVfire
p753
aVfizz*
p754
aVflavor*
p755
aVflavour*
p756
aVflexib*
p757
aVfragil*
p758
aVfragran*
p759
aVfreez*
p760
aVfroze*
p761
aVfruit*
p762
aVfuzz*
p763
aVgaz*
p764
aVglanc*
p765
aVglow*
p766
aVgrab*
p767
aVgray*
p768
aVgreas*
p769
aVgreen*
p770
aVgrey*
p771
aVgrip
p772
aVgripp*
p773
aVgrips
p774
aVhair*
p775
aVhand
p776
aVhandful*
p777
aVhands
p778
aVhard
p779
aVharde*
p780
aVharmon*
p781
aVhear
p782
aVheard
p783
aVhearing
p784
aVhears
p785
aVheavie*
p786
aVheavy*
p787
aVhoney
p788
aVhot
p789
aVhott*
p790
aVhush*
p791
aVimage*
p792
aVinaudibl*
p793
aVinhal*
p794
aVleather*
p795
aVlick*
p796
aVlight
p797
aVlimp*
p798
aVlisten
p799
aVlistened
p800
aVlistener*
p801
aVlistening
p802
aVlistens
p803
aVlit
p804
aVlook
p805
aVlooked
p806
aVlooker*
p807
aVlooking
p808
aVlooks
p809
aVloose*
p810
aVloud*
p811
aVmint*
p812
aVmusi*
p813
aVnasal
p814
aVnoise
p815
aVnoises
p816
aVnoisy
p817
aVnose*
p818
aVnostril*
p819
aVodor*
p820
aVodour*
p821
aVoil*
p822
aVorange*
p823
aVpalatabl*
p824
aVperfum*
p825
aVpicture
p826
aVpink*
p827
aVpress
p828
aVpressed
p829
aVpresser*
p830
aVpresses
p831
aVpungen*
p832
aVpurpl*
p833
aVquiet*
p834
aVrancid*
p835
aVrang
p836
aVrectang*
p837
aVred
p838
aVredde*
p839
aVreddish*
p840
aVredness
p841
aVreds
p842
aVreek*
p843
aVring
p844
aVringing
p845
aVrings
p846
aVrotten
p847
aVrough*
p848
aVround*
p849
aVrub
p850
aVrubbed
p851
aVrubbing
p852
aVrubs
p853
aVsaccharine
p854
aVsaid
p855
aVsaliv*
p856
aVsalt*
p857
aVsampl*
p858
aVsand
p859
aVsands
p860
aVsandy
p861
aVsang
p862
aVsavor*
p863
aVsavour*
p864
aVsaw
p865
aVsay*
p866
aVscan
p867
aVscann*
p868
aVscans
p869
aVscent*
p870
aVscratch*
p871
aVscream*
p872
aVscreen
p873
aVscrumptious*
p874
aVsee
p875
aVseeing
p876
aVseen
p877
aVseer
p878
aVsees
p879
aVsharp*
p880
aVshine
p881
aVshini*
p882
aVshiny
p883
aVshout*
p884
aVsight*
p885
aVsilen*
p886
aVsilk*
p887
aVskin
p888
aVskin'*
p889
aVsmell*
p890
aVsmooth*
p891
aVsniff*
p892
aVsnort*
p893
aVsoft*
p894
aVsong*
p895
aVsound*
p896
aVsour
p897
aVsoure*
p898
aVsouri*
p899
aVsours
p900
aVsoury
p901
aVspeak
p902
aVspeaker*
p903
aVspeaking
p904
aVspeaks
p905
aVspeech*
p906
aVspice
p907
aVspiced
p908
aVspices
p909
aVspicy
p910
aVspoke*
p911
aVsquar*
p912
aVsqueez*
p913
aVstank
p914
aVstare*
p915
aVstaring
p916
aVstench*
p917
aVstink*
p918
aVstroke*
p919
aVstroki*
p920
aVstunk
p921
aVsugar*
p922
aVsumptuous*
p923
aVsunli*
p924
aVsunshin*
p925
aVsweet
p926
aVsweetness
p927
aVsweets
p928
aVtang
p929
aVtangy
p930
aVtart
p931
aVtast*
p932
ag372
ag373
ag375
aVthunder*
p933
ag174
aVtongue*
p934
aVtouch*
p935
aVtriang*
p936
aVunsavo*
p937
aVview
p938
aVviewer*
p939
aVviewing*
p940
aVviews
p941
aVvivid*
p942
aVvoic*
p943
aVwaft*
p944
aVwarm*
p945
aVwatch*
p946
aVweight
p947
aVweighted
p948
aVweighting
p949
aVweightless*
p950
aVweightlift*
p951
aVweights
p952
aVwet
p953
aVwetly
p954
aVwhiff*
p955
aVwhisper*
p956
aVwhite*
p957
aVwhitish*
p958
aVyell
p959
aVyelled
p960
aVyelling
p961
aVyellow*
p962
aVyells
p963
aVyum*
p964
asVVerbs
p965
(lp966
Vaccepted
p967
aVadmit
p968
aVadmits
p969
aVadmitted
p970
aVaffected
p971
aVaint
p972
aVain't
p973
aVam
p974
aVappear
p975
aVappeared
p976
aVappears
p977
aVare
p978
aVarent
p979
aVaren't
p980
aVarrive
p981
aVarrived
p982
aVarrives
p983
aVask
p984
aVasked
p985
aVasks
p986
aVate
p987
aVbe
p988
aVbecame
p989
aVbecome
p990
aVbecomes
p991
aVbecoming
p992
aVbeen
p993
ag493
ag494
ag496
aVbeing
p994
aVbelieve
p995
aVbelieved
p996
aVbelieves
p997
aVbought
p998
aVbring
p999
aVbrings
p1000
aVbrought
p1001
aVcalled
p1002
aVcame
p1003
aVcan
p1004
aVcannot
p1005
aVcant
p1006
aVcan't
p1007
aVcare
p1008
aVcared
p1009
aVcares
p1010
aVcarried
p1011
aVcarries
p1012
aVcarry
p1013
aVcaught
p1014
aVchanged
p1015
aVcome
p1016
aVcomes
p1017
aVcould
p1018
aVcouldnt
p1019
aVcouldn't
p1020
aVcouldve
p1021
aVcould've
p1022
aVcried
p1023
aVdepended
p1024
aVdepends
p1025
aVdescribe
p1026
aVdescribed
p1027
aVdid
p1028
aVdidnt
p1029
aVdidn't
p1030
aVdied
p1031
aVdies
p1032
aVdislike
p1033
aVdisliked
p1034
aVdislikes
p1035
aVdo
p1036
aVdoes
p1037
aVdoesnt
p1038
aVdoesn't
p1039
aVdoing
p1040
aVdone
p1041
aVdont
p1042
aVdon't
p1043
aVdrank
p1044
aVdriven
p1045
aVdrove
p1046
aVeaten
p1047
aVemailed
p1048
ag526
aVentered
p1049
aVexplain
p1050
aVexplained
p1051
aVexplains
p1052
aVfed
p1053
ag747
ag749
ag750
aVfled
p1054
aVflew
p1055
aVfollow
p1056
aVfollowed
p1057
aVfollows
p1058
ag123
aVfought
p1059
aVfound
p1060
aVfuck
p1061
aVfucked*
p1062
aVfucks
p1063
aVgave
p1064
aVget
p1065
aVgets
p1066
aVgive
p1067
aVgiven
p1068
aVgives
p1069
aVgo
p1070
aVgoes
p1071
aVgone
p1072
aVgonna
p1073
aVgot
p1074
aVgotta
p1075
aVgotten
p1076
aVguess
p1077
aVguessed
p1078
aVguesses
p1079
aVhad
p1080
aVhadnt
p1081
aVhadn't
p1082
aVhappen
p1083
aVhappened
p1084
aVhappens
p1085
aVhas
p1086
aVhasnt
p1087
aVhasn't
p1088
aVhate
p1089
aVhated
p1090
aVhates
p1091
aVhave
p1092
aVhavent
p1093
aVhaven't
p1094
aVhaving
p1095
ag782
ag783
ag785
ag3
ag4
ag128
aVhe'll
p1096
aVhelped
p1097
aVhelps
p1098
aVheres
p1099
aVhere's
p1100
ag8
ag9
aVhit
p1101
aVhope
p1102
aVhoped
p1103
aVhopes
p1104
aVhows
p1105
aVhow's
p1106
ag14
ag15
ag16
ag17
aVi'm
p1107
aVis
p1108
aVisnt
p1109
aVisn't
p1110
ag427
ag428
ag429
ag430
ag432
ag19
ag20
ag134
ag136
ag137
aVknew
p1111
aVknow
p1112
aVknows
p1113
aVlet
p1114
ag21
ag22
aVlied
p1115
aVliked
p1116
ag799
ag800
ag803
aVlived
p1117
ag805
ag806
ag809
aVlost
p1118
aVlove
p1119
aVloved
p1120
aVloves
p1121
aVmade
p1122
aVmake
p1123
aVmakes
p1124
aVmay
p1125
aVmean
p1126
aVmeans
p1127
aVmeant
p1128
aVmet
p1129
aVmight
p1130
aVmightve
p1131
aVmight've
p1132
aVmiss
p1133
aVmissed
p1134
aVmisses
p1135
aVmoved
p1136
aVmust
p1137
aVmustnt
p1138
aVmust'nt
p1139
aVmustn't
p1140
aVmustve
p1141
aVmust've
p1142
aVneed
p1143
aVneeded
p1144
aVneeds
p1145
aVought
p1146
aVoughta
p1147
aVoughtnt
p1148
aVought'nt
p1149
aVoughtn't
p1150
aVoughtve
p1151
aVought've
p1152
aVowe
p1153
aVowed
p1154
aVowes
p1155
aVpaid
p1156
aVplayed
p1157
aVran
p1158
ag855
aVsat
p1159
ag865
ag875
aVseem
p1160
aVseemed
p1161
aVseems
p1162
ag877
ag879
aVsensed
p1163
aVsent
p1164
aVshall
p1165
aVshant
p1166
aVshan't
p1167
aVshared
p1168
ag32
ag33
ag34
ag35
aVshould
p1169
aVshouldnt
p1170
aVshould'nt
p1171
aVshouldn't
p1172
aVshouldve
p1173
aVshould've
p1174
aVshowed
p1175
aVslept
p1176
aVsold
p1177
aVspent
p1178
ag911
ag650
ag651
ag654
aVstayed
p1179
aVstood
p1180
ag164
aVstuck
p1181
aVstudied
p1182
aVsuck
p1183
aVsucked
p1184
aVsucks
p1185
aVsuffered
p1186
aVsupport
p1187
aVsupported
p1188
aVsupports
p1189
aVsuppose
p1190
aVsupposed
p1191
aVsupposes
p1192
aVtake
p1193
aVtaken
p1194
aVtakes
p1195
aVtaking
p1196
aVtalked
p1197
aVtaught
p1198
aVtend
p1199
aVtended
p1200
aVtends
p1201
aVthank
p1202
aVthanked
p1203
aVthanks
p1204
ag442
ag443
ag444
ag445
ag446
ag447
aVtheres
p1205
aVthere's
p1206
ag41
ag42
ag43
ag44
aVtheyre
p1207
aVthey're
p1208
ag45
ag46
aVthink
p1209
aVthinks
p1210
aVthought
p1211
aVthrew
p1212
aVtold
p1213
aVtook
p1214
aVtried
p1215
aVtries
p1216
aVtry
p1217
aVturn
p1218
aVturned
p1219
aVturns
p1220
aVunderstand
p1221
aVunderstands
p1222
aVunderstood
p1223
aVuse
p1224
aVused
p1225
aVuses
p1226
aVusing
p1227
aVviewed
p1228
ag177
ag178
ag180
aVwalked
p1229
aVwant
p1230
aVwanted
p1231
aVwants
p1232
aVwas
p1233
aVwasnt
p1234
aVwasn't
p1235
ag53
ag54
aVwent
p1236
aVwere
p1237
ag55
aVweren't
p1238
ag56
ag57
ag454
ag455
ag400
ag401
ag459
ag460
ag461
ag462
aVwhos
p1239
aVwho's
p1240
aVwill
p1241
aVwish
p1242
aVwished
p1243
aVwishes
p1244
aVwoke
p1245
aVwoken
p1246
aVwon
p1247
aVwonder
p1248
aVwondered
p1249
aVwont
p1250
aVwon't
p1251
aVwore
p1252
aVworked
p1253
aVworn
p1254
aVwould
p1255
aVwouldnt
p1256
aVwouldn't
p1257
aVwouldve
p1258
aVwould've
p1259
aVwritten
p1260
aVwrote
p1261
ag63
ag64
ag65
ag66
ag68
ag69
ag71
ag72
asVQuant
p1262
(lp1263
Vall
p1264
aVallot
p1265
aValot
p1266
aVamount*
p1267
aVanother
p1268
aVany
p1269
ag485
aVbesides
p1270
aVbest
p1271
aVbit
p1272
aVbits
p1273
ag211
aVbunch
p1274
aVcetera
p1275
aVcouple
p1276
aVdifference*
p1277
aVdoubl*
p1278
aVeach
p1279
aVeither
p1280
aVelse
p1281
aVenough
p1282
aVentire*
p1283
aVequal*
p1284
aVetc
p1285
aVevery
p1286
aVexample*
p1287
aVextent
p1288
aVextra
p1289
aVextremely
p1290
aVfairly
p1291
aVfew*
p1292
aVform
p1293
ag256
aVgreater
p1294
aVgreatest
p1295
aVhighly
p1296
aVincreas*
p1297
aVitem*
p1298
aVlack*
p1299
aVleast
p1300
aVless
p1301
aVloads
p1302
aVlot
p1303
aVlotof
p1304
aVlots
p1305
aVlotsa
p1306
aVlotta
p1307
aVmain
p1308
aVmajor
p1309
aVmajority
p1310
aVmany
p1311
aVmore
p1312
aVmost
p1313
aVmuch
p1314
aVmucho
p1315
aVneither
p1316
aVnone
p1317
aVones
p1318
aVown
p1319
aVpage
p1320
aVpart
p1321
aVpartly
p1322
aVpercent
p1323
aVpiec*
p1324
aVplenty
p1325
aVportion
p1326
aVremaining
p1327
aVrest
p1328
aVsame
p1329
ag341
ag342
aVselection
p1330
aVseries
p1331
aVseveral
p1332
aVsignificant
p1333
aVsimple
p1334
aVsingl*
p1335
aVsome
p1336
aVsomewhat
p1337
aVterm
p1338
aVton
p1339
aVtons
p1340
aVtotal
p1341
aVtripl*
p1342
aVunique
p1343
aVvarious
p1344
aVversion*
p1345
aVwhole
p1346
aVworst
p1347
asVDiscrep
p1348
(lp1349
g1270
ag1018
ag1019
ag1020
ag1021
ag1022
aVdesir*
p1350
aVexpect*
p1351
ag1102
ag1103
aVhopeful
p1352
aVhopefully
p1353
aVhopefulness
p1354
ag1104
aVhoping
p1355
aVideal*
p1356
aVif
p1357
aVimpossib*
p1358
aVinadequa*
p1359
ag1299
aVliabilit*
p1360
aVmistak*
p1361
ag1137
ag1138
ag1139
ag1140
ag1141
ag1142
ag1143
ag1144
aVneeding
p1362
aVneednt
p1363
aVneed'nt
p1364
aVneedn't
p1365
ag1145
aVnormal
p1366
ag1146
ag1147
ag1148
ag1149
ag1150
ag1151
ag1152
aVoutstanding
p1367
aVprefer*
p1368
aVproblem*
p1369
aVrather
p1370
aVregardless
p1371
aVregret*
p1372
ag1169
ag1170
ag1171
ag1172
aVshoulds
p1373
ag1173
ag1174
aVundesire*
p1374
aVundo
p1375
aVunneccess*
p1376
aVunneed*
p1377
aVunwant*
p1378
aVwanna
p1379
ag1230
ag1231
aVwanting
p1380
ag1232
ag1242
ag1243
ag1244
aVwishing
p1381
ag1255
ag1256
ag1257
ag1258
ag1259
aVyearn*
p1382
asVRelativ
p1383
(lp1384
g188
ag467
ag189
aVact
p1385
aVaction*
p1386
aVadvanc*
p1387
ag468
ag469
ag470
ag471
ag472
ag473
ag474
ag475
ag476
ag477
ag478
ag479
ag480
ag190
ag481
ag482
ag191
ag483
ag484
ag485
ag486
ag192
ag193
ag975
ag976
aVappearing
p1388
ag977
aVapproach*
p1389
ag487
ag194
ag195
aVarrival*
p1390
ag981
ag982
ag983
aVarriving
p1391
ag196
ag197
aVattend
p1392
aVattended
p1393
aVattending
p1394
aVattends
p1395
ag488
ag489
ag198
ag490
ag491
ag199
ag492
ag493
ag494
ag495
ag496
ag497
aVbehavio*
p1396
ag200
ag201
ag202
ag203
ag204
ag205
ag206
ag207
ag498
ag208
ag209
ag210
ag499
ag500
ag501
ag502
ag211
ag212
ag213
aVbreak
p1397
aVbrief*
p1398
ag999
aVbringing
p1399
ag1000
ag214
ag215
ag1001
aVbuilding
p1400
ag503
ag1003
ag216
aVcar
p1401
ag1011
aVcarrier*
p1402
ag1012
aVcarry
p1403
aVcarrying
p1404
aVcatch
p1405
ag1014
ag96
ag97
ag217
ag218
ag219
ag505
aVchange
p1406
ag1015
aVchanges
p1407
aVchanging
p1408
ag506
ag507
ag220
aVclimb*
p1409
ag508
ag221
ag222
aVclosely
p1410
ag223
aVcloses
p1411
ag224
aVclosing
p1412
ag1016
ag1017
aVcoming
p1413
ag509
ag225
aVconstant
p1414
ag511
ag512
ag226
ag227
ag228
ag229
aVcross*
p1415
aVcruis*
p1416
ag513
ag514
ag515
aVdanc*
p1417
ag516
ag517
ag518
ag519
ag520
ag230
ag111
aVdeliver*
p1418
ag231
ag232
aVdepart
p1419
aVdeparted
p1420
aVdeparting
p1421
aVdeparts
p1422
aVdeparture*
p1423
ag233
ag234
aVdisappear*
p1424
ag235
ag236
ag237
aVdrift*
p1425
aVdrive
p1426
ag1045
aVdrives
p1427
aVdriving
p1428
aVdrop
p1429
ag1046
ag521
ag522
ag523
ag524
ag238
ag239
ag240
ag241
ag242
ag120
ag243
ag525
ag526
ag527
ag528
ag244
aVenter
p1430
ag1049
aVentering
p1431
aVenters
p1432
ag245
ag246
ag529
ag530
ag531
ag532
ag533
ag534
ag535
ag536
ag247
ag248
aVexplor*
p1433
ag249
ag537
ag538
aVfall
p1434
aVfallen
p1435
aVfalling
p1436
aVfalls
p1437
ag250
ag251
ag252
ag539
ag540
ag541
ag542
aVfell
p1438
aVfill*
p1439
aVfinal
p1440
ag544
ag545
ag546
ag547
ag548
ag253
ag1054
aVflee*
p1441
ag1055
aVflies
p1442
ag254
aVflow*
p1443
aVfly
p1444
aVflying
p1445
ag1056
ag1057
aVfollowing
p1446
ag1058
ag549
ag550
ag551
ag255
ag552
ag553
ag554
ag555
ag556
ag557
aVfront
p1447
ag256
ag257
ag558
ag559
ag258
ag259
ag260
ag261
ag1070
ag1071
aVgoing
p1448
ag1072
aVgrew
p1449
ag262
aVgrow
p1450
aVgrowing
p1451
aVgrown
p1452
aVgrowth
p1453
ag263
aVhang
p1454
ag560
aVheaded
p1455
aVheading
p1456
ag264
ag265
ag266
aVhik*
p1457
ag561
ag267
ag562
ag268
ag563
ag564
ag565
ag566
ag567
ag568
ag269
ag270
ag569
ag1297
ag570
ag571
ag572
ag271
ag272
ag273
ag573
ag274
ag275
ag276
ag277
ag574
ag278
ag575
aVjog*
p1458
aVjourney*
p1459
ag576
aVjump*
p1460
ag577
ag279
ag280
ag281
ag282
ag578
ag579
ag580
ag581
ag582
aVlead*
p1461
aVleave
p1462
aVleaves
p1463
aVleaving
p1464
aVled
p1465
ag283
ag284
ag285
ag286
ag287
ag288
ag289
ag583
ag584
ag290
ag291
ag292
ag293
ag294
ag295
ag585
ag296
ag586
ag587
ag297
ag298
ag299
ag300
ag301
ag588
ag589
ag590
ag591
ag592
ag593
ag594
aVmotion*
p1466
aVmove
p1467
ag1136
aVmovement*
p1468
aVmover*
p1469
aVmoves
p1470
aVmoving
p1471
ag302
ag303
ag304
ag305
ag306
ag307
ag308
ag309
ag595
ag596
ag597
ag598
ag599
ag600
ag601
ag602
ag603
ag604
ag310
ag605
ag606
ag311
ag607
ag608
ag609
ag610
ag312
ag611
ag612
ag613
ag614
ag313
ag615
ag314
ag315
ag316
ag317
aVorder
p1472
ag616
ag318
ag319
ag320
ag321
ag322
ag323
ag324
ag325
aVpass
p1473
aVpassed
p1474
aVpasses
p1475
aVpassing
p1476
ag617
ag618
ag619
ag326
ag327
ag328
ag329
ag330
aVpost
p1477
ag620
ag621
ag622
ag623
ag624
aVpull*
p1478
aVpush*
p1479
aVput
p1480
aVputs
p1481
aVputting
p1482
ag625
ag1158
aVreceiv*
p1483
ag626
ag627
ag628
ag331
aVremov*
p1484
ag629
ag630
aVreplace*
p1485
aVreplacing
p1486
ag631
ag632
ag633
aVridden
p1487
aVride
p1488
aVrides
p1489
aVriding
p1490
ag332
aVrise*
p1491
aVrising
p1492
ag333
aVrode
p1493
ag334
ag335
ag336
ag337
ag338
ag339
ag340
aVrun
p1494
aVrunner*
p1495
aVrunning
p1496
aVruns
p1497
aVrush*
p1498
ag634
ag635
ag636
ag637
ag341
ag342
aVsend*
p1499
ag638
ag1164
ag343
ag639
ag640
aVset
p1500
aVshake*
p1501
ag344
ag345
aVshook
p1502
ag346
ag347
ag348
ag349
ag350
ag641
aVsit
p1503
ag351
aVsitting
p1504
ag352
aVslid
p1505
aVslide
p1506
aVslides
p1507
aVsliding
p1508
ag642
ag353
aVsometime
p1509
ag644
ag354
ag645
ag646
ag355
ag356
ag357
ag358
ag359
ag360
ag361
ag647
ag648
ag649
aVstage
p1510
ag362
aVstand
p1511
ag650
ag651
ag652
ag653
ag654
ag655
aVstate
p1512
aVstay*
p1513
aVstep
p1514
aVstepp*
p1515
aVsteps
p1516
ag656
ag163
ag164
ag165
ag165
ag166
ag167
ag363
ag364
ag365
ag657
ag658
ag659
ag660
ag366
ag367
aVswam
p1517
aVswim*
p1518
ag661
aVsystem*
p1519
ag368
ag369
ag370
ag662
aVterm
p1520
ag664
ag371
ag665
ag372
ag373
ag374
ag375
ag1212
aVthrow*
p1521
ag666
ag667
ag668
ag669
ag670
ag376
ag377
ag378
ag671
ag379
ag672
ag673
ag1214
ag380
ag381
ag382
aVtransact*
p1522
aVtransport*
p1523
aVtravel*
p1524
aVtrip
p1525
aVtripped
p1526
aVtripping
p1527
aVtrips
p1528
ag674
ag383
ag384
ag385
ag386
ag675
ag387
ag676
ag388
ag389
ag390
ag391
ag677
ag678
ag392
ag393
ag394
aVvisit*
p1529
aVwalk
p1530
ag1229
aVwalking
p1531
aVwalks
p1532
ag395
ag396
ag397
aVway
p1533
ag679
ag680
ag681
ag682
ag683
ag684
ag1236
ag398
ag685
ag686
ag399
ag400
ag401
ag402
ag687
ag688
ag403
ag404
ag689
ag405
ag406
aVyear
p1534
ag691
ag692
ag693
ag694
ag695
ag696
asVAffect
p1535
(lp1536
g75
aVabuse*
p1537
aVabusi*
p1538
aVaccept
p1539
aVaccepta*
p1540
ag967
aVaccepting
p1541
aVaccepts
p1542
aVache*
p1543
aVaching
p1544
aVactive*
p1545
aVadmir*
p1546
aVador*
p1547
aVadvantag*
p1548
aVadventur*
p1549
aVadvers*
p1550
aVaffection*
p1551
aVafraid
p1552
aVaggravat*
p1553
aVaggress*
p1554
aVagitat*
p1555
aVagoniz*
p1556
aVagony
p1557
aVagree
p1558
aVagreeab*
p1559
aVagreed
p1560
aVagreeing
p1561
aVagreement*
p1562
aVagrees
p1563
aValarm*
p1564
aValone
p1565
aValright*
p1566
aVamaz*
p1567
aVamor*
p1568
aVamus*
p1569
aVanger*
p1570
aVangr*
p1571
aVanguish*
p1572
aVannoy*
p1573
aVantagoni*
p1574
aVanxi*
p1575
aVaok
p1576
aVapath*
p1577
aVappall*
p1578
aVappreciat*
p1579
aVapprehens*
p1580
aVargh*
p1581
aVargu*
p1582
aVarrogan*
p1583
aVasham*
p1584
aVassault*
p1585
aVasshole*
p1586
aVassur*
p1587
aVattachment*
p1588
aVattack*
p1589
aVattract*
p1590
aVaversi*
p1591
ag79
aVaward*
p1592
aVawesome
p1593
aVawful
p1594
aVawkward*
p1595
aVbad
p1596
aVbashful*
p1597
aVbastard*
p1598
aVbattl*
p1599
aVbeaten
p1600
ag704
aVbeloved
p1601
aVbenefic*
p1602
aVbenefit
p1603
aVbenefits
p1604
aVbenefitt*
p1605
aVbenevolen*
p1606
aVbenign*
p1607
aVbest
p1608
aVbetter
p1609
aVbitch*
p1610
ag705
aVblam*
p1611
aVbless*
p1612
aVbold*
p1613
aVbonus*
p1614
aVbore*
p1615
aVboring
p1616
aVbother*
p1617
aVbrave*
p1618
ag714
aVbrillian*
p1619
aVbroke
p1620
aVbrutal*
p1621
aVburden*
p1622
aVcalm*
p1623
ag1008
ag1009
aVcarefree
p1624
ag94
aVcareless*
p1625
ag1010
aVcaring
p1626
aVcasual
p1627
aVcasually
p1628
aVcertain*
p1629
aVchalleng*
p1630
aVchamp*
p1631
aVcharit*
p1632
aVcharm*
p1633
aVcheat*
p1634
aVcheer*
p1635
aVcherish*
p1636
aVchuckl*
p1637
aVclever*
p1638
aVcomed*
p1639
aVcomfort*
p1640
aVcommitment*
p1641
aVcompassion*
p1642
aVcomplain*
p1643
aVcompliment*
p1644
aVconcerned
p1645
aVconfidence
p1646
aVconfident
p1647
aVconfidently
p1648
aVconfront*
p1649
aVconfus*
p1650
aVconsiderate
p1651
aVcontempt*
p1652
aVcontented*
p1653
aVcontentment
p1654
ag105
aVconvinc*
p1655
aVcool
p1656
aVcourag*
p1657
aVcrap
p1658
aVcrappy
p1659
aVcraz*
p1660
aVcreate*
p1661
aVcreati*
p1662
aVcredit*
p1663
ag1023
aVcries
p1664
aVcritical
p1665
aVcritici*
p1666
aVcrude*
p1667
aVcruel*
p1668
aVcrushed
p1669
aVcry
p1670
aVcrying
p1671
aVcunt*
p1672
aVcut
p1673
aVcute*
p1674
aVcutie*
p1675
aVcynic
p1676
aVdamag*
p1677
aVdamn*
p1678
aVdanger*
p1679
aVdaring
p1680
aVdarlin*
p1681
aVdaze*
p1682
aVdear*
p1683
ag519
aVdefeat*
p1684
aVdefect*
p1685
ag109
ag110
aVdefinite
p1686
aVdefinitely
p1687
aVdegrad*
p1688
ag735
aVdelicate*
p1689
ag736
aVdeligh*
p1690
aVdepress*
p1691
aVdepriv*
p1692
aVdespair*
p1693
aVdesperat*
p1694
aVdespis*
p1695
aVdestroy*
p1696
aVdestruct*
p1697
aVdetermina*
p1698
aVdetermined
p1699
aVdevastat*
p1700
aVdevil*
p1701
aVdevot*
p1702
aVdifficult*
p1703
aVdigni*
p1704
aVdisadvantage*
p1705
aVdisagree*
p1706
aVdisappoint*
p1707
aVdisaster*
p1708
aVdiscomfort*
p1709
ag116
aVdisgust*
p1710
aVdishearten*
p1711
aVdisillusion*
p1712
ag1033
ag1034
ag1035
aVdisliking
p1713
aVdismay*
p1714
aVdissatisf*
p1715
aVdistract*
p1716
aVdistraught
p1717
aVdistress*
p1718
aVdistrust*
p1719
aVdisturb*
p1720
aVdivin*
p1721
aVdomina*
p1722
aVdoom*
p1723
aVdork*
p1724
aVdoubt*
p1725
aVdread*
p1726
aVdull*
p1727
aVdumb*
p1728
aVdump*
p1729
aVdwell*
p1730
aVdynam*
p1731
aVeager*
p1732
aVease*
p1733
aVeasie*
p1734
aVeasily
p1735
aVeasiness
p1736
aVeasing
p1737
aVeasy*
p1738
aVecsta*
p1739
aVefficien*
p1740
aVegotis*
p1741
aVelegan*
p1742
aVembarrass*
p1743
aVemotion
p1744
ag1744
aVemotional
p1745
ag242
aVencourag*
p1746
aVenemie*
p1747
aVenemy*
p1748
aVenerg*
p1749
aVengag*
p1750
aVenjoy*
p1751
aVenrag*
p1752
aVentertain*
p1753
aVenthus*
p1754
aVenvie*
p1755
aVenvious
p1756
aVenvy*
p1757
aVevil*
p1758
aVexcel*
p1759
aVexcit*
p1760
aVexcruciat*
p1761
aVexhaust*
p1762
aVfab
p1763
aVfabulous*
p1764
aVfail*
p1765
aVfaith*
p1766
aVfake
p1767
aVfantastic*
p1768
aVfatal*
p1769
aVfatigu*
p1770
aVfault*
p1771
aVfavor*
p1772
aVfavour*
p1773
aVfear
p1774
aVfeared
p1775
aVfearful*
p1776
aVfearing
p1777
aVfearless*
p1778
aVfears
p1779
aVferoc*
p1780
aVfestiv*
p1781
aVfeud*
p1782
aVfiery
p1783
aVfiesta*
p1784
aVfight*
p1785
aVfine
p1786
aVfired
p1787
aVflatter*
p1788
aVflawless*
p1789
ag757
aVflirt*
p1790
aVflunk*
p1791
aVfoe*
p1792
aVfond
p1793
aVfondly
p1794
aVfondness
p1795
aVfool*
p1796
ag122
aVforgave
p1797
aVforgiv*
p1798
ag1059
aVfrantic*
p1799
aVfreak*
p1800
aVfree
p1801
aVfreeb*
p1802
aVfreed*
p1803
aVfreeing
p1804
aVfreely
p1805
aVfreeness
p1806
aVfreer
p1807
aVfrees*
p1808
aVfriend*
p1809
aVfright*
p1810
aVfrustrat*
p1811
ag1061
ag1062
aVfucker*
p1812
aVfuckin*
p1813
ag1063
aVfume*
p1814
aVfuming
p1815
aVfun
p1816
aVfunn*
p1817
aVfurious*
p1818
aVfury
p1819
aVgeek*
p1820
aVgenero*
p1821
aVgentle
p1822
aVgentler
p1823
aVgentlest
p1824
aVgently
p1825
aVgiggl*
p1826
aVgiver*
p1827
aVgiving
p1828
aVglad
p1829
aVgladly
p1830
aVglamor*
p1831
aVglamour*
p1832
aVgloom*
p1833
aVglori*
p1834
aVglory
p1835
aVgoddam*
p1836
aVgood
p1837
aVgoodness
p1838
aVgorgeous*
p1839
aVgossip*
p1840
aVgrace
p1841
aVgraced
p1842
aVgraceful*
p1843
aVgraces
p1844
aVgraci*
p1845
aVgrand
p1846
aVgrande*
p1847
aVgratef*
p1848
aVgrati*
p1849
aVgrave*
p1850
aVgreat
p1851
aVgreed*
p1852
aVgrief
p1853
aVgriev*
p1854
aVgrim*
p1855
aVgrin
p1856
aVgrinn*
p1857
aVgrins
p1858
aVgross*
p1859
aVgrouch*
p1860
aVgrr*
p1861
aVguilt*
p1862
aVha
p1863
aVhaha*
p1864
aVhandsom*
p1865
aVhappi*
p1866
aVhappy
p1867
aVharass*
p1868
aVharm
p1869
aVharmed
p1870
aVharmful*
p1871
aVharming
p1872
aVharmless*
p1873
ag781
aVharms
p1874
ag1089
ag1090
aVhateful*
p1875
aVhater*
p1876
ag1091
aVhating
p1877
aVhatred
p1878
aVhazy
p1879
aVheartbreak*
p1880
aVheartbroke*
p1881
aVheartfelt
p1882
aVheartless*
p1883
aVheartwarm*
p1884
aVheaven*
p1885
aVheh*
p1886
aVhell
p1887
aVhellish
p1888
aVhelper*
p1889
aVhelpful*
p1890
aVhelping
p1891
aVhelpless*
p1892
ag1098
aVhero*
p1893
ag129
aVhilarious
p1894
aVhoho*
p1895
aVhomesick*
p1896
aVhonest*
p1897
aVhonor*
p1898
aVhonour*
p1899
ag1102
ag1103
ag1352
ag1353
ag1354
aVhopeless*
p1900
ag1104
ag1355
aVhorr*
p1901
aVhostil*
p1902
aVhug
p1903
aVhugg*
p1904
aVhugs
p1905
aVhumiliat*
p1906
aVhumor*
p1907
aVhumour*
p1908
aVhurra*
p1909
aVhurt*
p1910
ag1356
aVidiot
p1911
ag131
aVimmoral*
p1912
aVimpatien*
p1913
aVimpersonal
p1914
aVimpolite*
p1915
aVimportan*
p1916
aVimpress*
p1917
aVimprove*
p1918
aVimproving
p1919
ag1359
aVincentive*
p1920
aVindecis*
p1921
aVineffect*
p1922
aVinferior*
p1923
ag132
aVinnocen*
p1924
aVinsecur*
p1925
aVinsincer*
p1926
aVinspir*
p1927
aVinsult*
p1928
aVintell*
p1929
aVinterest*
p1930
aVinterrup*
p1931
aVintimidat*
p1932
aVinvigor*
p1933
aVirrational*
p1934
aVirrita*
p1935
aVisolat*
p1936
aVjaded
p1937
aVjealous*
p1938
aVjerk
p1939
aVjerked
p1940
aVjerks
p1941
aVjoke*
p1942
aVjoking
p1943
aVjoll*
p1944
aVjoy*
p1945
aVkeen*
p1946
aVkidding
p1947
aVkill*
p1948
aVkind
p1949
aVkindly
p1950
aVkindn*
p1951
aVkiss*
p1952
aVlaidback
p1953
aVlame*
p1954
aVlaugh*
p1955
aVlazie*
p1956
aVlazy
p1957
ag1360
aVliar*
p1958
aVlibert*
p1959
ag1115
aVlies
p1960
ag412
aVlikeab*
p1961
ag1116
aVlikes
p1962
aVliking
p1963
aVlivel*
p1964
aVLMAO
p1965
aVLOL
p1966
aVlone*
p1967
aVlonging*
p1968
aVlose
p1969
aVloser*
p1970
aVloses
p1971
aVlosing
p1972
aVloss*
p1973
ag1118
aVlous*
p1974
ag1119
ag1120
aVlovely
p1975
aVlover*
p1976
ag1121
aVloving*
p1977
ag291
aVloyal*
p1978
aVluck
p1979
aVlucked
p1980
aVlucki*
p1981
aVluckless*
p1982
aVlucks
p1983
aVlucky
p1984
aVludicrous*
p1985
aVlying
p1986
aVmad
p1987
aVmaddening
p1988
aVmadder
p1989
aVmaddest
p1990
aVmadly
p1991
aVmagnific*
p1992
aVmaniac*
p1993
aVmasochis*
p1994
aVmelanchol*
p1995
aVmerit*
p1996
aVmerr*
p1997
aVmess
p1998
aVmessy
p1999
aVmiser*
p2000
ag1133
ag1134
ag1135
aVmissing
p2001
ag1361
aVmock
p2002
aVmocked
p2003
aVmocker*
p2004
aVmocking
p2005
aVmocks
p2006
aVmolest*
p2007
aVmooch*
p2008
aVmood
p2009
aVmoodi*
p2010
aVmoods
p2011
aVmoody
p2012
aVmoron*
p2013
aVmourn*
p2014
aVmurder*
p2015
aVnag*
p2016
aVnast*
p2017
aVneat*
p2018
aVneedy
p2019
ag139
aVnerd*
p2020
aVnervous*
p2021
aVneurotic*
p2022
aVnice*
p2023
aVnumb*
p2024
aVnurtur*
p2025
aVobnoxious*
p2026
aVobsess*
p2027
aVoffence*
p2028
aVoffend*
p2029
aVoffens*
p2030
aVok
p2031
aVokay
p2032
aVokays
p2033
aVoks
p2034
aVopenminded*
p2035
aVopenness
p2036
aVopportun*
p2037
aVoptimal*
p2038
aVoptimi*
p2039
aVoriginal
p2040
aVoutgoing
p2041
aVoutrag*
p2042
aVoverwhelm*
p2043
aVpain
p2044
aVpained
p2045
aVpainf*
p2046
aVpaining
p2047
aVpainl*
p2048
aVpains
p2049
ag824
aVpanic*
p2050
aVparadise
p2051
aVparanoi*
p2052
aVpartie*
p2053
aVparty*
p2054
aVpassion*
p2055
aVpathetic*
p2056
aVpeace*
p2057
aVpeculiar*
p2058
aVperfect*
p2059
aVpersonal
p2060
aVperver*
p2061
aVpessimis*
p2062
aVpetrif*
p2063
aVpettie*
p2064
aVpetty*
p2065
aVphobi*
p2066
aVpiss*
p2067
aVpiti*
p2068
aVpity*
p2069
aVplay
p2070
ag1157
aVplayful*
p2071
aVplaying
p2072
aVplays
p2073
aVpleasant*
p2074
aVplease*
p2075
aVpleasing
p2076
aVpleasur*
p2077
aVpoison*
p2078
aVpopular*
p2079
aVpositiv*
p2080
aVprais*
p2081
aVprecious*
p2082
aVprejudic*
p2083
aVpressur*
p2084
aVprettie*
p2085
aVpretty
p2086
aVprick*
p2087
aVpride
p2088
aVprivileg*
p2089
aVprize*
p2090
ag1369
aVprofit*
p2091
aVpromis*
p2092
aVprotest
p2093
aVprotested
p2094
aVprotesting
p2095
aVproud*
p2096
aVpuk*
p2097
aVpunish*
p2098
aVradian*
p2099
aVrage*
p2100
aVraging
p2101
ag835
aVrape*
p2102
aVraping
p2103
aVrapist*
p2104
aVreadiness
p2105
aVready
p2106
aVreassur*
p2107
aVrebel*
p2108
ag843
ag1372
aVreject*
p2109
aVrelax*
p2110
aVrelief
p2111
aVreliev*
p2112
ag151
aVremorse*
p2113
ag152
aVresent*
p2114
aVresign*
p2115
aVresolv*
p2116
aVrespect
p2117
aVrestless*
p2118
aVrevenge*
p2119
aVrevigor*
p2120
aVreward*
p2121
aVrich*
p2122
aVridicul*
p2123
ag159
aVrisk*
p2124
aVROFL
p2125
aVromanc*
p2126
aVromantic*
p2127
ag847
aVrude*
p2128
aVruin*
p2129
aVsad
p2130
aVsadde*
p2131
aVsadly
p2132
aVsadness
p2133
ag160
aVsarcas*
p2134
aVsatisf*
p2135
aVsavage*
p2136
aVsave
p2137
aVscare*
p2138
aVscaring
p2139
aVscary
p2140
aVsceptic*
p2141
ag872
aVscrew*
p2142
ag161
aVselfish*
p2143
aVsentimental*
p2144
aVserious
p2145
aVseriously
p2146
aVseriousness
p2147
aVsevere*
p2148
ag1501
aVshaki*
p2149
aVshaky
p2150
aVshame*
p2151
aVshare
p2152
ag1168
aVshares
p2153
aVsharing
p2154
aVshit*
p2155
aVshock*
p2156
ag1502
aVshy*
p2157
aVsicken*
p2158
aVsigh
p2159
aVsighed
p2160
aVsighing
p2161
aVsighs
p2162
aVsilli*
p2163
aVsilly
p2164
aVsin
p2165
aVsincer*
p2166
aVsinister
p2167
aVsins
p2168
aVskeptic*
p2169
aVslut*
p2170
aVsmart*
p2171
aVsmil*
p2172
aVsmother*
p2173
aVsmug*
p2174
aVsnob*
p2175
aVsob
p2176
aVsobbed
p2177
aVsobbing
p2178
aVsobs
p2179
aVsociab*
p2180
aVsolemn*
p2181
aVsorrow*
p2182
aVsorry
p2183
aVsoulmate*
p2184
aVspecial
p2185
aVspite*
p2186
aVsplend*
p2187
aVstammer*
p2188
ag914
aVstartl*
p2189
aVsteal*
p2190
aVstench
p2191
ag918
aVstrain*
p2192
aVstrange
p2193
aVstrength*
p2194
aVstress*
p2195
aVstrong*
p2196
aVstruggl*
p2197
ag168
ag921
aVstunned
p2198
aVstuns
p2199
aVstupid*
p2200
aVstutter*
p2201
aVsubmissive*
p2202
aVsucceed*
p2203
aVsuccess*
p2204
ag1183
ag1184
aVsucker*
p2205
ag1185
aVsucky
p2206
aVsuffer
p2207
ag1186
aVsufferer*
p2208
aVsuffering
p2209
aVsuffers
p2210
aVsunnier
p2211
aVsunniest
p2212
aVsunny
p2213
ag925
aVsuper
p2214
aVsuperior*
p2215
ag1187
ag1188
aVsupporter*
p2216
aVsupporting
p2217
aVsupportive*
p2218
ag1189
aVsuprem*
p2219
aVsure*
p2220
aVsurpris*
p2221
aVsuspicio*
p2222
ag926
aVsweetheart*
p2223
aVsweetie*
p2224
aVsweetly
p2225
aVsweetness*
p2226
ag928
aVtalent*
p2227
aVtantrum*
p2228
aVtears
p2229
aVteas*
p2230
aVtehe
p2231
aVtemper
p2232
aVtempers
p2233
aVtender*
p2234
aVtense*
p2235
aVtensing
p2236
aVtension*
p2237
aVterribl*
p2238
aVterrific*
p2239
aVterrified
p2240
aVterrifies
p2241
aVterrify
p2242
aVterrifying
p2243
aVterror*
p2244
ag1202
ag1203
aVthankf*
p2245
ag1204
aVthief
p2246
aVthieve*
p2247
aVthoughtful*
p2248
aVthreat*
p2249
aVthrill*
p2250
aVticked
p2251
aVtimid*
p2252
aVtoleran*
p2253
aVtortur*
p2254
aVtough*
p2255
aVtraged*
p2256
aVtragic*
p2257
aVtranquil*
p2258
aVtrauma*
p2259
aVtreasur*
p2260
aVtreat
p2261
aVtrembl*
p2262
aVtrick*
p2263
aVtrite
p2264
aVtriumph*
p2265
aVtrivi*
p2266
aVtroubl*
p2267
aVtrue
p2268
aVtrueness
p2269
aVtruer
p2270
aVtruest
p2271
aVtruly
p2272
aVtrust*
p2273
aVtruth*
p2274
aVturmoil
p2275
aVugh
p2276
aVugl*
p2277
aVunattractive
p2278
aVuncertain*
p2279
aVuncomfortabl*
p2280
aVuncontrol*
p2281
aVuneas*
p2282
aVunfortunate*
p2283
aVunfriendly
p2284
aVungrateful*
p2285
aVunhapp*
p2286
aVunimportant
p2287
aVunimpress*
p2288
aVunkind
p2289
aVunlov*
p2290
aVunpleasant
p2291
aVunprotected
p2292
ag937
aVunsuccessful*
p2293
aVunsure*
p2294
aVunwelcom*
p2295
aVupset*
p2296
ag175
aVuseful*
p2297
aVuseless*
p2298
aVvain
p2299
aVvaluabl*
p2300
aVvalue
p2301
aVvalued
p2302
aVvalues
p2303
aVvaluing
p2304
aVvanity
p2305
aVvicious*
p2306
aVvictim*
p2307
aVvigor*
p2308
aVvigour*
p2309
aVvile
p2310
aVvillain*
p2311
aVviolat*
p2312
aVviolent*
p2313
aVvirtue*
p2314
aVvirtuo*
p2315
aVvital*
p2316
aVvulnerab*
p2317
aVvulture*
p2318
aVwar
p2319
aVwarfare*
p2320
ag945
aVwarred
p2321
aVwarring
p2322
aVwars
p2323
aVweak*
p2324
aVwealth*
p2325
aVweapon*
p2326
aVweep*
p2327
aVweird*
p2328
aVwelcom*
p2329
aVwell*
p2330
aVwept
p2331
aVwhine*
p2332
aVwhining
p2333
aVwhore*
p2334
aVwicked*
p2335
aVwilling
p2336
aVwimp*
p2337
aVwin
p2338
aVwinn*
p2339
aVwins
p2340
aVwisdom
p2341
aVwise*
p2342
aVwitch
p2343
aVwoe*
p2344
ag1247
aVwonderf*
p2345
aVworr*
p2346
aVworse*
p2347
aVworship*
p2348
ag1347
aVworthless*
p2349
aVworthwhile
p2350
aVwow*
p2351
aVwrong*
p2352
aVyay
p2353
aVyays
p2354
ag1382
asVYou
p2355
(lp2356
g36
ag47
ag48
ag49
ag50
ag58
ag59
ag60
ag61
ag62
ag63
ag64
ag65
ag66
aVyour
p2357
ag68
ag69
ag70
ag71
ag72
asVCause
p2358
(lp2359
Vactivat*
p2360
aVaffect
p2361
ag971
aVaffecting
p2362
aVaffects
p2363
ag1553
aVallow*
p2364
aVattribut*
p2365
aVbased
p2366
aVbases
p2367
aVbasis
p2368
aVbecause
p2369
aVboss*
p2370
aVcaus*
p2371
ag1406
ag1015
ag1407
ag1408
aVcompel*
p2372
aVcompliance
p2373
aVcomplie*
p2374
aVcomply*
p2375
aVconclud*
p2376
aVconsequen*
p2377
ag106
aVcos
p2378
aVcoz
p2379
ag1661
ag1662
aVcuz
p2380
aVdeduc*
p2381
aVdepend
p2382
ag1024
aVdepending
p2383
ag1025
aVeffect*
p2384
aVelicit*
p2385
aVexperiment
p2386
aVforce*
p2387
aVfoundation*
p2388
aVfounded
p2389
aVfounder*
p2390
aVgenerate*
p2391
aVgenerating
p2392
aVgenerator*
p2393
aVhence
p2394
aVhow
p2395
ag1105
ag1106
aVignit*
p2396
aVimplica*
p2397
aVimplie*
p2398
aVimply*
p2399
aVinact*
p2400
aVindepend*
p2401
aVinduc*
p2402
aVinfer
p2403
aVinferr*
p2404
aVinfers
p2405
aVinfluenc*
p2406
aVintend*
p2407
aVintent*
p2408
aVjustif*
p2409
aVlaunch*
p2410
ag1461
ag1465
ag1122
ag1123
aVmaker*
p2411
ag1124
aVmaking
p2412
aVmanipul*
p2413
aVmisle*
p2414
aVmotiv*
p2415
aVobedien*
p2416
aVobey*
p2417
ag616
aVoriginat*
p2418
aVorigins
p2419
aVoutcome*
p2420
aVpermit*
p2421
aVpick
p2422
aVproduc*
p2423
aVprovoc*
p2424
aVprovok*
p2425
aVpurpose*
p2426
aVrational*
p2427
aVreact*
p2428
aVreason*
p2429
aVresponse
p2430
aVresult*
p2431
aVroot*
p2432
aVsince
p2433
aVsolution*
p2434
aVsolve
p2435
aVsolved
p2436
aVsolves
p2437
aVsolving
p2438
aVsource*
p2439
aVstimul*
p2440
aVtherefor*
p2441
aVthus
p2442
aVtrigger*
p2443
ag1224
ag1225
ag1226
ag1227
aVwhy
p2444
asVPrep
p2445
(lp2446
Vabout
p2447
ag188
ag189
ag468
aVagainst
p2448
ag480
aValong
p2449
ag191
ag195
aVas
p2450
ag196
ag197
ag198
ag492
aVbehind
p2451
ag200
ag204
ag206
ag1270
aVbetween
p2452
ag207
aVby
p2453
aVdespite
p2454
ag236
ag522
aVexcept
p2455
aVfor
p2456
aVfrom
p2457
ag269
ag272
ag273
ag278
ag304
aVof
p2458
ag312
ag313
ag314
ag318
ag320
ag323
aVplus
p2459
ag2433
aVthan
p2460
aVthrough*
p2461
aVthru
p2462
aVtil
p2463
ag668
aVto
p2464
ag381
ag383
ag384
aVunless
p2465
ag675
aVunto
p2466
ag387
ag388
ag1379
aVwith
p2467
ag405
aVwithout
p2468
asVRelig
p2469
(lp2470
g469
aVagnost*
p2471
aValla
p2472
aVallah*
p2473
aValtar*
p2474
aVamen
p2475
aVamish
p2476
aVangel
p2477
aVangelic*
p2478
aVangels
p2479
aVbaptis*
p2480
aVbaptiz*
p2481
aVbelief*
p2482
aVbible*
p2483
aVbiblic*
p2484
aVbishop*
p2485
ag1612
aVbuddh*
p2486
aVcatholic*
p2487
aVchapel*
p2488
aVchaplain*
p2489
aVchrist
p2490
aVchristian*
p2491
ag507
aVchurch*
p2492
aVclergy
p2493
aVconfess*
p2494
aVconvent
p2495
aVconvents
p2496
aVcrucifi*
p2497
aVcrusade*
p2498
aVdemon*
p2499
ag1701
ag1721
ag1723
aVepiscopal*
p2500
aVevangel*
p2501
ag1766
aVfundamentalis*
p2502
aVgentile*
p2503
aVgod'*
p2504
aVgospel*
p2505
ag1885
ag1887
ag1888
aVhells
p2506
aVhindu*
p2507
aVholie*
p2508
aVholy
p2509
aVhymn*
p2510
ag1912
ag568
aVislam*
p2511
aVjesuit*
p2512
aVjesus
p2513
aVjew
p2514
aVjewish*
p2515
aVjews
p2516
aVjihad*
p2517
aVjuda*
p2518
aVkarma
p2519
aVkippur
p2520
aVkoran
p2521
aVkosher
p2522
aVkrishna*
p2523
aVkrisna*
p2524
aVlord*
p2525
aVlutheran*
p2526
aVmecca
p2527
aVmeditat*
p2528
aVmercif*
p2529
aVmercy
p2530
aVmethodis*
p2531
aVminister*
p2532
aVministr*
p2533
aVmissionar*
p2534
aVmitzvah*
p2535
aVmohamm*
p2536
aVmonast*
p2537
aVmonk*
p2538
aVmoral
p2539
aVmorality
p2540
aVmorals
p2541
aVmormon*
p2542
aVmosque*
p2543
aVmuhamm*
p2544
aVmujahid*
p2545
aVmusl*
p2546
aVnun
p2547
aVnuns
p2548
aVorthodox*
p2549
aVpagan*
p2550
ag2051
aVpassover
p2551
aVpastor*
p2552
aVpenance
p2553
aVpentecost*
p2554
aVpew
p2555
aVpews
p2556
aVpiety
p2557
aVpilgrim*
p2558
aVpious
p2559
aVpope*
p2560
ag2081
aVpray*
p2561
aVpreach*
p2562
aVpresbyterian*
p2563
aVpriest*
p2564
aVprophe*
p2565
aVprotestant*
p2566
aVpsalm*
p2567
aVpurgator*
p2568
aVpuritan*
p2569
aVquran*
p2570
aVqur'an*
p2571
aVrabbi
p2572
aVrabbinical
p2573
aVrabbis
p2574
aVramadan
p2575
aVreligio*
p2576
aVrite
p2577
aVrites
p2578
aVritual*
p2579
aVrosaries
p2580
aVrosary
p2581
aVroshashan*
p2582
aVsabbath*
p2583
aVsacred
p2584
aVsacrific*
p2585
aVsaint*
p2586
aVsalvation
p2587
aVsatan*
p2588
aVscriptur*
p2589
aVsect
p2590
aVsectarian
p2591
aVsects
p2592
aVseminar*
p2593
aVshi'*
p2594
aVshiite*
p2595
aVshrine*
p2596
aVsikh*
p2597
ag2165
aVsinn*
p2598
ag2168
aVsoul
p2599
aVsouls
p2600
aVspirit*
p2601
aVsunni
p2602
aVsunnis
p2603
aVtemple*
p2604
aVtestament*
p2605
aVtheolog*
p2606
aVtorah
p2607
aVvatican*
p2608
aVveil*
p2609
ag2348
aVyiddish
p2610
aVzen
p2611
aVzion*
p2612
asVBody
p2613
(lp2614
Vabdomen*
p2615
aVabs
p2616
ag77
aVankle*
p2617
aVanus*
p2618
aVappendix
p2619
aVarch
p2620
aVarm
p2621
aVarmpit*
p2622
aVarms*
p2623
aVarous*
p2624
aVarse
p2625
aVarses
p2626
aVarter*
p2627
aVasleep
p2628
aVass
p2629
aVasses
p2630
aVbald
p2631
aVbellies
p2632
aVbelly
p2633
aVbicep*
p2634
aVbladder*
p2635
aVblood
p2636
aVbloody
p2637
aVbodi*
p2638
aVbody*
p2639
aVbone
p2640
aVbones
p2641
aVbony
p2642
aVboob*
p2643
aVbowel*
p2644
aVbrain*
p2645
aVbreast*
p2646
aVbreath*
p2647
aVbutt
p2648
aVbutts
p2649
aVcheek*
p2650
aVchest*
p2651
aVclothes
p2652
aVcock
p2653
aVcocks*
p2654
aVcolon
p2655
aVcolons
p2656
aVcornea*
p2657
ag1658
aVcrotch
p2658
aVdick
p2659
aVdicks
p2660
ag740
ag742
ag743
aVelbow*
p2661
aVerectile
p2662
aVerection*
p2663
ag745
aVface
p2664
aVfaces
p2665
aVfacial*
p2666
aVfat
p2667
aVfatt*
p2668
aVfeet
p2669
ag752
aVflesh*
p2670
aVfoot
p2671
aVforearm*
p2672
aVforehead*
p2673
aVgenital*
p2674
aVgoosebump*
p2675
aVgums
p2676
aVgut
p2677
aVguts
p2678
ag775
aVhamstring*
p2679
ag776
ag778
aVhead
p2680
aVheads
p2681
aVheart
p2682
aVhearts
p2683
aVheel*
p2684
aVhip
p2685
aVhips
p2686
aVhornie*
p2687
aVhorny
p2688
aVintestin*
p2689
aVitch*
p2690
aVjaw*
p2691
aVjoints
p2692
aVkidney*
p2693
aVknee*
p2694
aVknuckle*
p2695
aVleg
p2696
aVlegs*
p2697
aVlip
p2698
aVlips*
p2699
aVliver*
p2700
aVlung*
p2701
aVmouth*
p2702
aVmucous*
p2703
aVmuscle*
p2704
aVmuscular
p2705
aVnaked
p2706
ag814
aVneck
p2707
aVnerve*
p2708
aVneural*
p2709
aVneuron*
p2710
aVnipple*
p2711
ag818
ag819
aVnude*
p2712
aVnudi*
p2713
aVorgasm*
p2714
aVovar*
p2715
aVpalm
p2716
aVpalms
p2717
aVpee
p2718
aVpelvi*
p2719
aVpenis*
p2720
aVperspir*
p2721
ag2067
aVpoop*
p2722
ag2087
aVprostat*
p2723
aVpulse
p2724
aVpussies
p2725
aVpussy*
p2726
aVrash*
p2727
aVretina*
p2728
aVrib
p2729
aVribs
p2730
ag856
aVscalp
p2731
aVsensation
p2732
aVsensations
p2733
aVshirt*
p2734
ag2155
aVshoe*
p2735
aVshoulder*
p2736
aVskelet*
p2737
ag888
aVskinni*
p2738
aVskull
p2739
aVsleep*
p2740
aVslender*
p2741
ag1176
aVspat
p2742
aVspinal
p2743
aVspine
p2744
aVspit
p2745
aVspits
p2746
aVspitting
p2747
aVstomach*
p2748
aVsweat*
p2749
aVteeth*
p2750
aVtendon
p2751
aVtendons
p2752
aVthigh*
p2753
aVthirst*
p2754
aVthroat*
p2755
aVtit
p2756
aVtits
p2757
aVtitties
p2758
aVtitty
p2759
aVtoe
p2760
aVtoenail*
p2761
aVtoes
p2762
ag934
aVtonsils
p2763
aVtooth*
p2764
aVtricep*
p2765
aVurin*
p2766
aVuter*
p2767
aVvagina*
p2768
aVvein*
p2769
aVwaist*
p2770
aVwake
p2771
aVwear
p2772
aVwomb*
p2773
aVwrist*
p2774
asVBio
p2775
(lp2776
g2615
aVabortion*
p2777
ag2616
ag1543
ag1544
aVacne
p2778
aVaddict*
p2779
aVadvil
p2780
aVaids
p2781
aValcohol*
p2782
aValive
p2783
aVallerg*
p2784
aVamput*
p2785
ag77
ag2617
aVanorexi*
p2786
aVantacid*
p2787
aVantidepressant*
p2788
ag2618
aVappendic*
p2789
ag2619
aVappeti*
p2790
ag2620
ag2621
ag2622
ag2623
ag2624
ag2625
ag2626
ag2627
aVarthr*
p2791
ag2628
aVaspirin*
p2792
ag2629
ag2630
aVasthma*
p2793
ag987
aVbake*
p2794
aVbaking
p2795
ag2631
aVbandage*
p2796
aVbandaid
p2797
aVbar
p2798
aVbars
p2799
aVbeer*
p2800
ag2632
ag2633
aVbi
p2801
ag2634
aVbinge*
p2802
aVbinging
p2803
aVbipolar
p2804
ag2635
aVbleed*
p2805
ag710
ag2636
ag2637
ag2638
ag2639
aVboil*
p2806
ag2640
aVboner*
p2807
ag2641
ag2642
ag2643
aVbooz*
p2808
ag2644
ag2645
aVbread
p2809
aVbreakfast*
p2810
ag2646
ag2647
aVbronchi*
p2811
aVbrunch*
p2812
aVbulimi*
p2813
aVburp*
p2814
ag2648
ag2649
aVbutt's
p2815
aVcafeteria*
p2816
aVcancer*
p2817
aVcandie*
p2818
aVcandy
p2819
aVcardia*
p2820
aVcardio*
p2821
aVcheckup*
p2822
ag2650
ag2651
aVchew*
p2823
aVchills
p2824
aVchiropract*
p2825
aVchlamydia
p2826
aVchok*
p2827
aVcholester*
p2828
aVchow*
p2829
aVchronic*
p2830
aVcigar*
p2831
aVclinic*
p2832
ag2652
ag2653
ag2654
aVcodeine
p2833
aVcoffee*
p2834
aVcoke*
p2835
ag2655
aVcolono*
p2836
ag2656
aVcoma*
p2837
aVcondom
p2838
aVcondoms
p2839
aVcongest*
p2840
aVconstipat*
p2841
aVcontag*
p2842
aVcook*
p2843
ag2657
aVcoronar*
p2844
aVcough*
p2845
aVcramp*
p2846
ag1658
ag2658
aVcuddl*
p2847
aVcyst*
p2848
ag734
aVdecongest*
p2849
aVdentist*
p2850
aVderma*
p2851
aVdessert*
p2852
aVdetox*
p2853
aVdiabet*
p2854
aVdiagnos*
p2855
aVdiarr*
p2856
ag2659
ag2660
aVdiet*
p2857
aVdigest*
p2858
aVdine
p2859
aVdined
p2860
aVdiner
p2861
aVdiners
p2862
aVdines
p2863
aVdining
p2864
aVdinner*
p2865
aVdisease*
p2866
aVdish
p2867
aVdishes
p2868
aVdizz*
p2869
aVdoctor*
p2870
aVdosage
p2871
aVdose*
p2872
aVdosing
p2873
aVdr
p2874
ag1044
aVdrink*
p2875
ag740
aVdrows*
p2876
aVdrs
p2877
aVdrug*
p2878
aVdrunk*
p2879
aVdx
p2880
aVdyke*
p2881
ag742
ag743
aVeat
p2882
ag1047
aVeating
p2883
aVeats
p2884
aVegg*
p2885
ag2661
aVemphysem*
p2886
aVenema*
p2887
ag2662
ag2663
aVerotic*
p2888
aVespresso*
p2889
aVestrogen*
p2890
aVexercis*
p2891
ag1762
ag745
ag2664
ag2665
ag2666
aVfaint*
p2892
aVfarsighted
p2893
ag2667
ag1770
aVfats
p2894
ag2668
ag1053
aVfeed
p2895
aVfeeder*
p2896
aVfeeding*
p2897
aVfeeds
p2898
ag2669
aVfever*
p2899
ag752
ag2670
aVflu
p2900
aVfood*
p2901
ag2671
ag2672
ag2673
aVforeplay
p2902
aVfries
p2903
ag762
aVfry*
p2904
ag1061
ag1062
ag1812
ag1813
ag1063
aVgay
p2905
aVgays
p2906
ag2674
aVgland*
p2907
aVglaucoma
p2908
aVglutton*
p2909
aVgobble*
p2910
aVgobbling
p2911
aVgonorrhea
p2912
ag2675
aVgrocer*
p2913
aVgulp*
p2914
ag2676
ag2677
ag2678
aVgynecolog*
p2915
aVgyno*
p2916
ag775
aVhallucinat*
p2917
ag2679
ag776
ag778
aVhangover*
p2918
ag2680
aVheadache*
p2919
ag2681
aVheal
p2920
aVhealed
p2921
aVhealer*
p2922
aVhealing
p2923
aVheals
p2924
aVhealth*
p2925
ag2682
aVheartburn*
p2926
ag2683
ag2684
aVhelpings
p2927
aVhemor*
p2928
aVherpes
p2929
aVhiccup*
p2930
ag2685
ag2686
aVhiv
p2931
aVho
p2932
aVhomo
p2933
aVhomos
p2934
aVhomosexual*
p2935
aVhormone*
p2936
ag2687
ag2688
aVhospital*
p2937
ag1903
ag1904
ag1905
aVhump*
p2938
aVhunger*
p2939
aVhungover
p2940
aVhungr*
p2941
aVhyperten*
p2942
aVhypotherm*
p2943
aVibuprofen
p2944
aVICU
p2945
aVill
p2946
aVillness*
p2947
aVimmun*
p2948
aVincest*
p2949
aVindigestion
p2950
aVinfect*
p2951
aVinflam*
p2952
aVingest*
p2953
aVinjur*
p2954
aVinsomnia*
p2955
aVinsulin
p2956
ag2689
aVintox*
p2957
ag2690
aViv
p2958
ag2691
aVjissom
p2959
aVjizz
p2960
ag2692
ag2693
ag1952
aVkitchen*
p2961
ag2694
ag2695
ag2696
ag2697
aVlesbian*
p2962
aVleuke*
p2963
aVlibid*
p2964
aVlife
p2965
ag2698
ag2699
aVliquor*
p2966
ag2700
aVliving
p2967
ag1119
ag1120
ag1976
ag1121
aVlozenge*
p2968
aVlump
p2969
aVlunch*
p2970
ag2701
aVlust*
p2971
aVlymph*
p2972
aVmakeout*
p2973
aVmammogram
p2974
aVmanicdep*
p2975
aVmeal*
p2976
aVmedic*
p2977
aVmigrain*
p2978
aVmilk*
p2979
aVmiscar*
p2980
aVmono
p2981
ag2702
aVmri
p2982
ag2703
ag2704
ag2705
aVmyopi*
p2983
ag2706
ag814
aVnause*
p2984
aVnearsighted
p2985
ag2707
ag2708
ag2709
aVneurolog*
p2986
ag2710
ag2711
ag818
ag819
ag2712
ag2713
ag2024
aVnurse*
p2987
aVnutrition*
p2988
aVobes*
p2989
aVOCD
p2990
aVoptometr*
p2991
ag2714
aVorgies
p2992
aVorgy
p2993
aVorthodon*
p2994
aVorthoped*
p2995
ag2715
aVoverate
p2996
aVovereat*
p2997
aVoverweight
p2998
ag2044
ag2045
ag2046
ag2047
ag2048
ag2049
ag2716
ag2717
aVpap
p2999
aVparaly*
p3000
ag2055
aVpasta*
p3001
aVpatholog*
p3002
aVpediatr*
p3003
ag2718
ag2719
ag2720
ag2721
ag2061
aVpharmac*
p3004
ag2066
aVphysical*
p3005
aVphysician*
p3006
aVpill
p3007
aVpills
p3008
aVpimple*
p3009
ag2067
aVpizza*
p3010
aVpms
p3011
aVpodiatr*
p3012
ag2078
ag2722
aVporn*
p3013
aVpregnan*
p3014
aVprescri*
p3015
ag2087
aVprognos*
p3016
ag2723
aVprostitu*
p3017
aVprozac
p3018
ag145
ag146
ag147
aVpubic
p3019
ag2097
ag2724
aVpuss
p3020
ag2725
ag2726
aVqueas*
p3021
aVqueer*
p3022
ag2102
ag2103
ag2104
ag2727
aVrehab*
p3023
aVrestau*
p3024
ag2728
ag2729
ag2730
aVritalin
p3025
aVrx
p3026
aVsalad*
p3027
ag856
aVsandwich*
p3028
aVscab*
p3029
ag2731
aVschizophren*
p3030
aVscrape*
p3031
ag2142
aVseduc*
p3032
aVseizure*
p3033
ag2732
ag2733
aVservings
p3034
aVsex*
p3035
ag2734
ag2155
ag2735
ag2736
aVsick
p3036
aVsickday*
p3037
aVsicker
p3038
aVsickest
p3039
aVsickleave*
p3040
aVsickly
p3041
aVsickness*
p3042
aVsinus*
p3043
ag2737
ag888
ag2738
aVskinny*
p3044
ag2739
ag2740
ag2741
ag1176
ag2170
aVsmok*
p3045
aVsnack*
p3046
aVsoda*
p3047
aVsore*
p3048
ag2742
ag2743
ag2744
ag2745
ag2746
ag2747
aVstarve*
p3049
aVstarving
p3050
aVstd*
p3051
ag162
ag2748
aVstrept*
p3052
ag919
aVstud
p3053
aVstuffed
p3054
ag922
aVsunburn*
p3055
aVsupper*
p3056
aVsurgeon*
p3057
aVsurger*
p3058
aVswallow*
p3059
ag2749
aVswelling
p3060
aVswollen
p3061
aVsymptom*
p3062
aVsyndrome*
p3063
aVsyphili*
p3064
ag932
aVtea
p3065
ag2750
ag2234
aVtendon
p3066
aVtendoni*
p3067
ag2752
aVtestosterone*
p3068
aVtherap*
p3069
aVthermometer*
p3070
ag2753
ag2754
ag2755
aVthrob*
p3071
aVthyroid*
p3072
aVtingl*
p3073
aVtire*
p3074
aVtiring
p3075
ag2756
ag2757
ag2758
ag2759
ag2760
ag2761
ag2762
ag934
ag2763
ag2764
aVtox*
p3076
ag2765
aVtumo*
p3077
aVtwitch*
p3078
aVtylenol
p3079
aVulcer*
p3080
aVunhealth*
p3081
ag2766
ag2767
ag2768
aVvd
p3082
aVveget*
p3083
aVveggie*
p3084
ag2769
aVvertigo
p3085
aVviagra
p3086
aVvicodin
p3087
aVvirgin*
p3088
aVvitamin*
p3089
aVvomit*
p3090
ag2770
ag2771
aVwart
p3091
aVwarts
p3092
aVwash
p3093
aVwater
p3094
ag2324
ag2772
aVweary
p3095
aVweigh
p3096
aVweighed
p3097
aVweighing*
p3098
aVweighs
p3099
ag947
aVwheez*
p3100
aVwhiskey*
p3101
aVwhisky*
p3102
ag2334
aVwine
p3103
aVwines
p3104
aVwithdrawal
p3105
ag2773
aVwound*
p3106
ag2774
aVxanax
p3107
aVxray*
p3108
aVyawn*
p3109
aVzit
p3110
aVzits
p3111
aVzoloft
p3112
asVWe
p3113
(lp3114
g21
ag22
ag28
ag29
ag30
ag51
ag52
ag53
ag54
ag55
ag56
ag57
asVAssent
p3115
(lp3116
Vabsolutely
p3117
ag1558
aVah
p3118
ag1566
ag1576
aVaw
p3119
ag1593
ag1656
aVduh
p3120
ag1863
aVhah
p3121
ag1864
ag1886
aVhm*
p3122
aVhuh
p3123
aVlol
p3124
aVmm*
p3125
ag2031
ag2032
aVokey*
p3126
aVrofl
p3127
aVuhhu*
p3128
aVuhuh
p3129
aVyah
p3130
ag2353
aVyea
p3131
aVyeah
p3132
aVyep*
p3133
aVyes
p3134
aVyup
p3135
asVIncl
p3136
(lp3137
Vadd
p3138
aVaddit*
p3139
ag2449
aVand
p3140
ag195
ag211
ag1003
ag221
ag1016
ag1279
aVinclu*
p3141
ag272
ag278
ag315
ag318
ag2459
ag52
ag2467
asVLeisure
p3142
(lp3143
Vactor*
p3144
aVactress*
p3145
aVaerobic*
p3146
ag1569
aVapartment*
p3147
aVart
p3148
aVartist*
p3149
aVarts
p3150
aVathletic*
p3151
aVball
p3152
aVballet*
p3153
aVband
p3154
aVbands
p3155
ag2798
ag2799
aVbaseball*
p3156
aVbasketball*
p3157
aVbath*
p3158
aVbeach*
p3159
ag2800
aVbicyc*
p3160
aVbike*
p3161
aVbirdie*
p3162
aVblackjack
p3163
aVblockbuster*
p3164
aVblog*
p3165
aVbook*
p3166
aVcaf*
p3167
aVcamping
p3168
aVcards
p3169
aVcasino*
p3170
ag1627
aVcd*
p3171
aVcelebrat*
p3172
aVcelebrit*
p3173
aVchannel*
p3174
aVchat*
p3175
aVcheckers
p3176
aVchess
p3177
aVchillin*
p3178
ag722
aVchorus
p3179
aVcinema*
p3180
aVclub*
p3181
aVcoach*
p3182
aVcocktail*
p3183
ag2834
ag1639
aVcomic*
p3184
ag731
ag2843
ag1416
ag1417
aVdecorat*
p3185
aVdiaries
p3186
aVdiary
p3187
aVdj*
p3188
aVdrama
p3189
aVdream*
p3190
ag2875
aVdrum
p3191
aVdrumm*
p3192
aVdrums
p3193
ag2879
aVdvd*
p3194
ag1738
ag1753
ag2891
aVfamilies*
p3195
aVfamily
p3196
aVfantasi*
p3197
aVfantasy
p3198
aVfilm*
p3199
aVfishing
p3200
aVfitness
p3201
aVflatscreen*
p3202
aVfootball*
p3203
aVfrisbee*
p3204
aVgame*
p3205
aVgaming
p3206
aVgarage*
p3207
aVgarden*
p3208
aVgolf*
p3209
aVguitar*
p3210
aVgym*
p3211
aVhangin*
p3212
aVhangout*
p3213
ag1457
aVhiphop
p3214
aVhobb*
p3215
aVhockey*
p3216
aVholiday*
p3217
aVhorseback
p3218
aVhotel*
p3219
aVhunting
p3220
aVinn
p3221
aVinns
p3222
aVintramural*
p3223
aVipod*
p3224
aVjazz*
p3225
ag1458
ag1942
ag1943
aVkaraoke
p3226
aVkeg
p3227
aVkegger
p3228
aVkeggers
p3229
aVkegs
p3230
ag1953
ag2966
aVmagazine*
p3231
aVmall
p3232
aVmalls
p3233
aVmarathon*
p3234
aVmargarita*
p3235
aVmartini*
p3236
ag2528
aVminesweeper
p3237
aVmotel*
p3238
aVmovie*
p3239
aVmtv*
p3240
aVmuseum*
p3241
ag813
aVnap
p3242
aVnaps
p3243
aVnetflix
p3244
aVnintendo*
p3245
aVnovel
p3246
aVnovels
p3247
aVopera*
p3248
aVorchestra
p3249
aVparks
p3250
ag2053
ag2054
aVpitcher*
p3251
ag2070
ag1157
ag2071
ag2072
ag2073
aVplaystation*
p3252
aVpoetry
p3253
aVpoker
p3254
aVpool*
p3255
aVpretend*
p3256
aVpub
p3257
aVpubs
p3258
aVradio*
p3259
aVrap
p3260
aVread
p3261
aVreading
p3262
aVrecording*
p3263
aVrecreation*
p3264
aVreggae
p3265
ag2110
ag3024
aVresting
p3266
aVrock
p3267
aVrocks
p3268
aVroller*
p3269
aVrowing
p3270
aVrugby*
p3271
aVrum
p3272
ag1495
ag1496
aVsalsa
p3273
ag862
aVscrabble
p3274
aVscrapbook*
p3275
aVsculpt*
p3276
aVshop
p3277
aVshopaholic*
p3278
aVshopp*
p3279
aVshops
p3280
aVshow
p3281
aVshows
p3282
aVsing
p3283
aVsinging
p3284
aVsings
p3285
aVskat*
p3286
aVski
p3287
aVskied
p3288
aVskier*
p3289
aVskiing
p3290
aVskis
p3291
aVsoaps
p3292
aVsoccer*
p3293
aVsolitaire
p3294
ag895
aVspa
p3295
aVspas
p3296
aVsport*
p3297
aVstandup
p3298
aVstereo
p3299
aVstereos
p3300
aVstoned
p3301
aVsunbath*
p3302
ag1518
aVsymphon*
p3303
aVtanning
p3304
aVteam*
p3305
aVtechno
p3306
aVtelevision*
p3307
aVtennis*
p3308
aVtequila
p3309
aVtheat*
p3310
aVticket*
p3311
aVtivo*
p3312
aVtoy*
p3313
ag1524
aVtriathl*
p3314
aVtv*
p3315
aVunwind*
p3316
aVvacation*
p3317
aVvcr*
p3318
aVvideo*
p3319
aVvodka*
p3320
aVvolleyb*
p3321
ag682
ag951
ag952
ag3101
ag3102
ag3103
ag3104
aVworkout*
p3322
aVxbox*
p3323
aVyard
p3324
aVyoga
p3325
asVAuxVb
p3326
(lp3327
g972
ag973
ag974
ag978
ag979
ag980
ag988
ag989
ag990
ag991
ag992
ag993
ag994
ag1004
ag1005
ag1006
ag1007
ag1018
ag1019
ag1020
ag1021
ag1022
ag1028
ag1029
ag1030
ag1036
ag1037
ag1038
ag1039
ag1040
ag1041
ag1042
ag1043
ag1080
ag1081
ag1082
ag1086
ag1087
ag1088
ag1092
ag1093
ag1094
ag1095
ag3
ag4
ag1099
ag1100
ag8
ag9
ag14
ag15
ag16
ag17
ag18
ag1108
ag1109
ag1110
ag427
ag428
ag429
ag430
ag432
ag19
ag20
aVlet
p3328
ag1125
ag1130
ag1131
ag1132
ag1137
ag1138
ag1139
ag1140
ag1141
ag1142
ag1146
ag1147
ag1148
ag1149
ag1150
ag1151
ag1152
ag1165
ag1166
ag1167
ag32
ag33
ag34
ag35
ag1169
ag1170
ag1171
ag1172
ag1173
ag1174
ag442
ag443
ag444
ag445
ag446
ag447
ag1205
ag1206
ag41
ag42
ag43
ag44
ag1207
ag1208
ag45
ag46
ag1233
ag1234
ag1235
ag53
ag54
ag1237
ag1238
ag56
ag57
ag454
ag455
ag400
ag401
ag459
ag460
ag461
ag462
ag1241
ag1250
ag1251
ag1255
ag1256
ag1257
ag1258
ag1259
ag63
ag64
ag65
ag66
ag68
ag69
ag71
ag72
asVHear
p3329
(lp3330
g702
ag703
ag713
ag722
ag731
ag734
ag742
ag743
ag781
ag782
ag783
ag784
ag785
ag791
ag793
ag799
ag800
ag801
ag802
ag803
ag811
ag813
ag815
ag816
ag817
ag834
ag836
ag844
ag845
ag846
ag855
ag862
ag866
ag872
ag884
ag886
ag895
ag896
ag902
ag903
ag904
ag905
ag906
ag911
ag933
ag943
ag956
ag959
ag960
ag961
ag963
asVThey
p3331
(lp3332
g37
ag38
ag39
ag40
ag41
ag42
ag43
ag44
ag45
ag46
asVPosemo
p3333
(lp3334
g1539
ag1540
ag967
ag1541
ag1542
ag1545
ag1546
ag1547
ag1548
ag1549
ag1551
ag1558
ag1559
ag1560
ag1561
ag1562
ag1563
ag1566
ag1567
ag1568
ag1569
ag1576
ag1579
ag1587
ag1588
ag1590
ag1592
ag1593
ag704
ag1601
ag1602
ag1603
ag1604
ag1605
ag1606
ag1607
ag1608
ag1609
ag1612
ag1613
ag1614
ag1618
ag714
ag1619
ag1623
ag1008
ag1009
ag1624
ag94
ag1010
ag1626
ag1627
ag1628
ag1629
ag1630
ag1631
ag1632
ag1633
ag1635
ag1636
ag1637
ag1638
ag1639
ag1640
ag1641
ag1642
ag1644
ag1646
ag1647
ag1648
ag1651
ag1653
ag1654
ag1655
ag1656
ag1657
ag1661
ag1662
ag1663
ag1674
ag1675
ag1680
ag1681
ag1683
ag1686
ag1687
ag735
ag1689
ag736
ag1690
ag1698
ag1699
ag1702
ag1704
ag1721
ag1731
ag1732
ag1733
ag1734
ag1735
ag1736
ag1737
ag1738
ag1739
ag1740
ag1742
ag1746
ag1749
ag1750
ag1751
ag1753
ag1754
ag1759
ag1760
ag1763
ag1764
ag1766
ag1768
ag1772
ag1773
ag1778
ag1781
ag1784
ag1786
ag1788
ag1789
ag757
ag1790
ag1793
ag1794
ag1795
ag1797
ag1798
ag1801
aVfree*
p3335
ag1802
ag1803
ag1804
ag1805
ag1806
ag1807
ag1808
ag1809
ag1816
ag1817
ag1821
ag1822
ag1823
ag1824
ag1825
ag1826
ag1827
ag1828
ag1829
ag1830
ag1831
ag1832
ag1834
ag1835
ag1837
ag1838
ag1839
ag1841
ag1842
ag1843
ag1844
ag1845
ag1846
ag1847
ag1848
ag1849
ag1851
ag1856
ag1857
ag1858
ag1863
ag1864
ag1865
ag1866
ag1867
ag1873
ag781
ag1882
ag1884
ag1885
ag1886
ag1889
ag1890
ag1891
ag1098
ag1893
ag1894
ag1895
ag1897
ag1898
ag1899
ag1102
ag1103
ag1352
ag1353
ag1354
ag1104
ag1355
aVhug
p3336
ag1904
ag1905
ag1907
ag1908
ag1909
ag1356
ag1916
ag1917
ag1918
ag1919
ag1920
ag1924
ag1927
ag1929
ag1930
ag1933
ag1942
ag1943
ag1944
ag1945
ag1946
ag1947
ag1949
ag1950
ag1951
ag1952
ag1953
ag1955
ag1959
ag412
ag1961
ag1116
ag1962
ag1963
ag1964
ag1965
ag1966
ag1119
ag1120
ag1975
ag1976
ag1121
ag1977
ag1978
ag1979
ag1980
ag1981
ag1983
ag1984
ag1991
ag1992
ag1996
ag1997
ag2018
ag2023
ag2025
ag2031
ag2032
ag2033
ag2034
ag2035
ag2036
ag2037
ag2038
ag2039
ag2040
ag2041
ag2048
ag824
ag2051
ag2053
ag2054
ag2055
ag2057
ag2059
ag2070
ag1157
ag2071
ag2072
ag2073
ag2074
ag2075
ag2076
ag2077
ag2079
ag2080
ag2081
ag2082
ag2085
ag2086
ag2088
ag2089
ag2090
ag2091
ag2092
ag2096
ag2099
ag2105
ag2106
ag2107
ag2110
ag2111
ag2112
ag2116
aVrespect
p3337
ag2120
ag2121
ag2122
ag2125
ag2126
ag2127
ag160
ag2135
ag2137
ag874
ag161
ag2144
ag2152
ag1168
ag2153
ag2154
ag2163
ag2164
ag2166
ag2171
ag2172
ag2180
ag2184
ag2185
ag2187
ag2194
ag2196
ag2203
ag2204
ag2211
ag2212
ag2213
ag925
ag2214
ag2215
ag1187
ag1188
ag2216
ag2217
ag2218
ag1189
ag2219
ag2220
ag2221
ag926
ag2223
ag2224
ag2225
ag2226
ag928
ag2227
ag2231
ag2234
ag2239
ag1202
ag1203
ag2245
ag1204
ag2248
ag2250
ag2253
ag2258
ag2260
ag2261
ag2265
aVtrue
p3338
ag2269
ag2270
ag2271
ag2272
ag2273
ag2274
ag2297
ag2300
ag2301
ag2302
ag2303
ag2304
ag2308
ag2309
ag2314
ag2315
ag2316
ag945
ag2325
ag2329
ag2330
ag2338
ag2339
ag2340
ag2341
ag2342
ag1247
ag2345
ag2348
ag2350
ag2351
ag2353
ag2354
asVArticle
p3339
(lp3340
Va
p3341
ag1266
aVan
p3342
aVthe
p3343
asVExcl
p3344
(lp3345
Vbut
p3346
ag1280
ag2455
aVexclu*
p3347
ag1357
aVjust
p3348
aVnot
p3349
aVor
p3350
ag1370
aVreally
p3351
ag439
aVsometime
p3352
ag2465
aVversus
p3353
aVvs
p3354
aVwhether
p3355
ag2468
asVHome
p3356
(lp3357
Vaddress
p3358
ag3147
aVbackyard
p3359
ag2794
ag2795
aVbalcon*
p3360
ag3158
aVbed
p3361
aVbedding
p3362
aVbedroom*
p3363
aVbeds
p3364
aVblender*
p3365
aVbroom*
p3366
aVcarpet*
p3367
aVchore*
p3368
aVclean*
p3369
aVcloset
p3370
aVclosets
p3371
aVcondo
p3372
aVcondominium*
p3373
aVcondos
p3374
aVcouch*
p3375
aVcurtain*
p3376
aVden
p3377
aVdishwasher*
p3378
aVdoghouse*
p3379
aVdomestic*
p3380
aVdoor*
p3381
aVdorm*
p3382
aVdrape*
p3383
aVdresser*
p3384
aVdriveway*
p3385
aVduplex*
p3386
ag3195
ag3196
aVfireplace*
p3387
aVfridge*
p3388
aVfurniture
p3389
aVfuton*
p3390
ag3207
ag3208
aVgate*
p3391
aVhome
p3392
aVhomes
p3393
ag1896
aVhomework*
p3394
aVhouse*
p3395
aVhousing
p3396
ag2961
aVlandlord*
p3397
aVlawn*
p3398
aVlease*
p3399
aVleasing*
p3400
aVloft
p3401
aVlofts
p3402
aVloveseat*
p3403
aVmaid*
p3404
aVmailbox
p3405
aVmattress*
p3406
aVmicrowave*
p3407
aVmop
p3408
aVmortg*
p3409
aVneighbor*
p3410
aVoven*
p3411
aVpatio*
p3412
aVpet
p3413
aVpets
p3414
aVpillow*
p3415
aVporch
p3416
aVremodel*
p3417
aVrenovat*
p3418
aVrent*
p3419
aVresiden*
p3420
ag334
ag335
ag336
ag337
ag338
ag339
ag340
aVrug
p3421
aVrugs
p3422
aVshower*
p3423
aVsofa*
p3424
aVstove*
p3425
aVstudio
p3426
aVstudios
p3427
aVsweep*
p3428
aVtenant*
p3429
aVtoaster*
p3430
aVvacuum*
p3431
aVwindow*
p3432
ag3324
asVFriends
p3433
(lp3434
Vacquainta*
p3435
aVamigo*
p3436
aVbf*
p3437
aVboyf*
p3438
aVbud
p3439
aVbuddies*
p3440
aVbuddy*
p3441
aVcolleague*
p3442
aVcompanion
p3443
aVcompanions
p3444
aVcomrad*
p3445
aVexbf*
p3446
aVexboyfriend*
p3447
aVexgf*
p3448
aVexgirl*
p3449
aVfellow*
p3450
aVfiance*
p3451
ag1809
aVgf*
p3452
aVgirlfriend*
p3453
aVguest*
p3454
ag788
ag1976
aVmate
p3455
aVmates
p3456
aVmate's
p3457
ag3410
aVneighbour*
p3458
aVpal
p3459
aVpals
p3460
aVpartner*
p3461
ag335
ag337
ag339
ag2184
ag2223
ag2224
asVPresent
p3462
(lp3463
g968
ag969
ag972
ag973
ag974
ag975
ag977
ag978
ag979
ag980
ag981
ag983
ag984
ag986
ag990
ag991
ag494
ag496
ag995
ag997
ag999
ag1000
ag1004
ag1005
ag1006
ag1007
ag1008
ag1010
ag1012
ag1013
ag1016
ag1017
ag1025
ag1026
aVdescribes
p3464
ag1032
ag1033
ag1035
ag1036
ag1037
ag1038
ag1039
ag1042
ag1043
ag1050
ag1052
ag747
ag749
ag1056
ag1058
ag1061
ag1063
ag1065
ag1066
ag1067
ag1069
ag1070
ag1071
ag1077
ag1079
ag1083
ag1085
ag1086
ag1087
ag1088
ag1089
ag1091
ag1092
ag1093
ag1094
ag782
ag785
ag1098
ag1099
ag1100
ag8
ag9
ag1102
ag1104
ag1105
ag1106
ag17
ag1107
ag1108
ag1109
ag1110
ag432
ag19
ag20
ag134
ag136
ag1112
ag1113
ag21
ag22
ag799
ag803
ag805
ag809
ag1119
ag1121
ag1123
ag1124
ag1126
ag1127
ag1133
ag1135
ag1143
ag1145
ag1153
ag1155
ag875
ag1160
ag1162
ag879
ag34
ag35
ag650
ag654
ag1183
ag1185
ag1187
ag1189
ag1190
ag1192
ag1193
ag1195
ag1196
ag1199
ag1201
ag1202
ag1204
ag446
ag447
ag1205
ag1206
ag1207
ag1208
ag45
ag46
ag1209
ag1210
ag1216
ag1217
ag1218
ag1220
ag1221
ag1222
ag1224
ag1226
ag1227
ag177
ag180
ag1230
ag1232
ag55
ag454
ag455
ag400
ag401
ag1239
ag1240
ag1242
ag1244
ag1248
ag68
ag69
ag71
ag72
asVNumbers
p3465
(lp3466
Vbillion*
p3467
aVdozen*
p3468
aVeight*
p3469
aVeleven
p3470
aVfift*
p3471
ag546
ag547
ag548
aVfive
p3472
aVfour*
p3473
aVhalf
p3474
aVhundred*
p3475
ag570
aVmillion*
p3476
aVnine*
p3477
ag615
aVone
p3478
aVquarter*
p3479
aVsecond
p3480
aVseven*
p3481
aVsix*
p3482
aVten
p3483
aVtenth
p3484
aVthird
p3485
aVthirt*
p3486
aVthousand*
p3487
aVthree
p3488
aVtrillion*
p3489
aVtwel*
p3490
aVtwent*
p3491
aVtwice
p3492
aVtwo
p3493
aVzero
p3494
aVzillion*
p3495
asVCogMech
p3496
(lp3497
g75
aVabsolute
p3498
ag3117
ag76
ag1539
ag1540
ag967
ag1541
ag1542
aVaccura*
p3499
aVacknowledg*
p3500
ag2360
ag3138
ag3139
aVadjust*
p3501
ag968
ag969
ag970
aVadmitting
p3502
ag2361
ag971
ag2362
ag2363
ag472
ag1553
ag1264
ag1265
ag2364
aValmost
p3503
ag2449
ag1266
aValtogether
p3504
ag482
aVambigu*
p3505
ag77
aVanaly*
p3506
ag3140
aVanswer*
p3507
ag1269
ag420
aVanyhow
p3508
ag421
ag422
ag486
ag192
aVapparent
p3509
aVapparently
p3510
ag975
ag976
ag1388
ag977
ag1579
aVapproximat*
p3511
aVarbitrar*
p3512
ag195
aVassum*
p3513
ag1587
aVattent*
p3514
ag2365
ag78
ag79
aVaware*
p3515
ag80
ag81
ag82
ag83
aVbarely
p3516
ag84
ag2366
ag2367
ag2368
ag989
ag2369
ag990
ag991
ag992
ag2482
ag995
ag996
ag997
aVbelieving
p3517
ag1270
aVbet
p3518
aVbets
p3519
aVbetting
p3520
ag85
aVblatant*
p3521
ag86
ag87
ag88
ag89
ag90
aVblur*
p3522
aVborderline*
p3523
ag2370
ag211
ag91
ag92
ag93
ag3346
ag1003
ag94
aVcategor*
p3524
ag2371
ag95
ag96
ag97
ag1629
aVchance
p3525
ag1406
ag1015
ag1407
ag1408
aVchoice*
p3526
aVchoos*
p3527
aVclarif*
p3528
aVclear
p3529
aVclearly
p3530
ag221
aVclosure
p3531
aVcohere*
p3532
ag1016
aVcommit
p3533
ag1641
aVcommits
p3534
aVcommitt*
p3535
ag2372
aVcomplete
p3536
aVcompleted
p3537
aVcompletely
p3538
aVcompletes
p3539
aVcomplex*
p3540
ag2373
aVcomplica*
p3541
ag2374
ag2375
aVcompreh*
p3542
ag98
aVconcentrat*
p3543
ag2376
aVconclus*
p3544
ag2494
ag1646
ag1647
ag1648
ag99
ag100
ag1650
aVconscious*
p3545
ag2377
ag101
aVconsider
p3546
aVconsidered
p3547
aVconsidering
p3548
aVconsiders
p3549
ag102
ag103
ag104
aVcontemplat*
p3550
aVcontingen*
p3551
ag105
ag106
aVcorrect*
p3552
aVcorrelat*
p3553
ag2378
ag1018
ag1019
ag1020
ag1021
ag1022
ag2379
ag1661
ag1662
ag107
aVcurio*
p3554
ag108
ag2380
aVdecid*
p3555
aVdecis*
p3556
ag2381
ag109
ag110
aVdefine
p3557
aVdefined
p3558
aVdefines
p3559
aVdefining
p3560
ag1686
ag1687
aVdefinitive*
p3561
ag111
ag112
ag113
ag114
ag2382
ag1024
ag2383
ag1025
ag1350
ag1698
aVdetermine
p3562
ag1699
aVdetermines
p3563
aVdetermining
p3564
ag1277
aVdifferentiat*
p3565
aVdirectly
p3566
aVdiscern*
p3567
ag115
aVdisclo*
p3568
ag116
aVdiscover*
p3569
aVdisorient*
p3570
ag117
aVdistinct*
p3571
aVdistinguish*
p3572
ag1725
aVdubious*
p3573
aVdunno
p3574
ag118
ag119
ag1279
ag2384
ag1280
ag2385
ag120
aVenlighten*
p3575
ag1283
aVessential
p3576
aVevaluat*
p3577
ag535
ag1286
ag423
ag425
aVevident*
p3578
aVexact*
p3579
aVexamin*
p3580
ag2455
ag3347
ag1351
ag2386
ag1050
ag1051
aVexplaining
p3581
ag1052
aVexplanat*
p3582
aVexplicit*
p3583
ag1433
ag1290
aVfact
p3584
aVfacts
p3585
aVfactual*
p3586
ag1291
ag747
ag748
ag749
ag750
ag121
aVfigur*
p3587
aVfind*
p3588
ag122
ag2387
ag550
ag1797
aVforget*
p3589
ag1798
ag123
ag1060
ag2388
ag2389
ag2390
aVfrankly
p3590
aVfundamental
p3591
ag2502
aVfundamentally
p3592
aVfundamentals
p3593
ag763
aVgeneral
p3594
aVgenerally
p3595
ag2391
ag2392
ag2393
aVgrasp*
p3596
aVguarant*
p3597
ag124
ag1077
ag1078
ag1079
aVguessing
p3598
aVhalfass*
p3599
ag125
ag126
aVhardly
p3600
ag127
aVhazie*
p3601
ag1879
ag128
ag2394
ag129
ag130
ag1102
ag1103
ag1352
ag1353
ag1354
ag1104
ag1355
ag2395
ag1105
ag1106
aVhypothes*
p3602
aVhypothetic*
p3603
aVidea
p3604
ag1356
aVideas
p3605
aVidentif*
p3606
ag1357
ag2396
ag131
aVimagin*
p3607
ag2397
aVimplicit*
p3608
ag2398
ag2399
ag1358
ag2400
ag1359
ag3141
aVincomplet*
p3609
ag1921
aVindeed
p3610
aVindefinit*
p3611
ag2401
aVindetermin*
p3612
aVindirect*
p3613
ag2402
aVinevitab*
p3614
aVinfallib*
p3615
ag2403
ag2404
ag2405
ag2406
aVinfo
p3616
aVinform
p3617
aVinformation
p3618
aVinformative*
p3619
aVinformed
p3620
aVinforming
p3621
aVinforms
p3622
ag132
aVinquir*
p3623
ag272
aVinsight*
p3624
ag1927
ag2407
ag2408
ag133
aVinterpret*
p3625
ag278
aVinvariab*
p3626
ag1934
aVirrefu*
p3627
aVissue
p3628
ag3348
ag2409
ag134
ag135
ag136
ag137
aVkind (of)
p3629
aVkinda
p3630
aVkindof
p3631
ag1111
ag1112
aVknowab*
p3632
aVknower*
p3633
aVknowing
p3634
aVknowledg*
p3635
aVknown
p3636
ag1113
ag1299
ag2410
aVlaw
p3637
ag1461
aVlearn*
p3638
ag1465
aVlesson*
p3639
ag1360
aVlikel*
p3640
ag138
aVlink*
p3641
aVlogic*
p3642
ag1303
ag1304
aVlots
p3643
ag1306
ag1307
ag1979
ag1980
ag1981
ag1982
ag1983
ag1984
ag1122
aVmainly
p3644
aVmake
p3645
ag2411
ag1124
ag2412
ag2413
aVmarginal*
p3646
aVmatter*
p3647
ag1125
aVmaybe
p3648
ag1126
aVmeaning*
p3649
ag1127
ag1128
aVmemor*
p3650
ag1130
ag1131
ag1132
aVmind
p3651
ag2414
ag1361
aVmisunder*
p3652
ag1313
aVmostly
p3653
ag2415
ag1137
ag1138
ag1139
ag1140
ag1141
ag1142
aVmyster*
p3654
aVname
p3655
aVnearly
p3656
aVnecessar*
p3657
ag1143
ag1144
ag1362
ag1363
ag1364
ag1365
ag1145
ag139
ag595
aVnews
p3658
ag1366
ag3349
aVnotice*
p3659
aVnoticing
p3660
ag2416
ag2417
aVobscur*
p3661
ag140
aVobvious*
p3662
ag607
aVoften
p3663
ag315
aVopinion
p3664
ag141
aVoption
p3665
ag3350
aVorganiz*
p3666
ag616
ag2418
ag2419
ag1146
ag1147
ag1148
ag1149
ag1150
ag1151
ag1152
ag318
ag2420
ag1367
aVoverall
p3667
ag1322
aVperceiv*
p3668
aVpercept*
p3669
ag2059
aVperhaps
p3670
ag2421
aVpick
p3671
ag2459
aVponder*
p3672
ag2080
aVpossib*
p3673
aVpractically
p3674
aVprecis*
p3675
ag1368
aVpresum*
p3676
ag2086
ag142
aVprobable
p3677
aVprobablistic*
p3678
aVprobably
p3679
ag1369
ag2423
ag143
aVproof
p3680
aVprove*
p3681
aVproving
p3682
ag2424
ag2425
ag145
ag146
ag147
aVpure*
p3683
ag2426
aVpuzzl*
p3684
aVquer*
p3685
aVquestion*
p3686
aVquite
p3687
aVrandom*
p3688
ag1370
ag2427
ag2428
aVreal
p3689
aVreality
p3690
aVrealiz*
p3691
ag3351
aVrearrang*
p3692
ag2429
aVrecall*
p3693
aVreckon*
p3694
aVrecogni*
p3695
aVrecollect*
p3696
aVreconcil*
p3697
aVreconsider*
p3698
aVreconstruct*
p3699
aVreevaluat*
p3700
aVrefer*
p3701
aVreflect*
p3702
ag148
ag149
ag1371
ag1372
ag150
aVrelate*
p3703
aVrelating
p3704
aVrelation
p3705
ag151
aVrememb*
p3706
aVreorgani*
p3707
ag152
ag153
ag154
aVresolu*
p3708
ag2116
ag2430
ag155
ag156
ag157
aVrestructur*
p3709
ag2431
ag158
aVrethink*
p3710
aVreveal*
p3711
aVrevelat*
p3712
ag159
ag2432
ag160
ag1329
ag2137
aVsecret
p3713
aVsecrets
p3714
ag1160
ag1161
aVseeming*
p3715
ag1162
aVsense
p3716
ag1163
aVsenses
p3717
aVsensing
p3718
ag2149
ag2150
ag1169
ag1170
ag1171
ag1172
ag1373
ag1173
ag1174
aVsign
p3719
ag2433
ag2434
ag2435
ag2436
ag2437
ag2438
ag1336
ag437
aVsomehow
p3720
ag438
ag439
ag3352
ag644
ag1337
ag354
aVsort
p3721
aVsorta
p3722
aVsortof
p3723
aVsorts
p3724
aVsortsa
p3725
ag2439
aVspose
p3726
aVstandard
p3727
aVstatement*
p3728
ag162
ag2440
ag163
ag164
ag165
ag166
ag167
aVstories
p3729
aVstory
p3730
ag168
ag169
ag1190
ag1191
ag1192
aVsupposing
p3731
aVsupposition*
p3732
ag170
ag2220
aVsuspect*
p3733
ag2222
ag171
ag662
aVtentativ*
p3734
aVtheor*
p3735
ag2441
ag1209
aVthinker*
p3736
aVthinking*
p3737
ag1210
ag1211
aVthoughts
p3738
ag2442
ag172
ag173
ag174
ag1341
aVtotally
p3739
ag2443
aVtrue
p3740
ag2271
ag2272
ag2274
aVtypically
p3741
aVunaccept*
p3742
aVunambigu*
p3743
aVunaware*
p3744
ag2279
aVunclear*
p3745
aVundecided*
p3746
aVundeniab*
p3747
ag1221
aVunderstandab*
p3748
aVunderstanding*
p3749
ag1222
ag1223
ag1374
aVundetermin*
p3750
aVundo
p3751
aVundoubt*
p3752
aVunknow*
p3753
ag2465
aVunlikel*
p3754
aVunluck*
p3755
ag1376
ag1377
aVunquestion*
p3756
aVunrelat*
p3757
aVunresolv*
p3758
aVunsettl*
p3759
ag2294
ag1378
ag175
ag1224
ag1225
ag1226
ag1227
ag678
aVvague*
p3760
aVvariab*
p3761
aVvaries
p3762
aVvary
p3763
ag3353
ag176
ag3354
ag177
ag178
ag179
ag180
ag1379
ag1230
ag1231
ag1380
ag1232
ag52
ag3355
aVwholly
p3764
ag2444
ag1242
ag1243
ag1244
ag1381
ag2467
ag183
ag184
ag2468
ag1248
ag1249
aVwondering
p3765
aVwonders
p3766
aVword
p3767
ag1255
ag1256
ag1257
ag1258
ag1259
aVwrite
p3768
aVwriting
p3769
ag1261
ag1382
ag185
asVI
p3770
(lp3771
g13
ag14
ag15
ag16
ag17
ag18
ag19
ag20
ag23
ag24
ag25
ag26
asVWork
p3772
(lp3773
Vabsent*
p3774
aVacadem*
p3775
aVaccomplish*
p3776
aVachiev*
p3777
aVadministrat*
p3778
aVadvertising
p3779
aVadvis*
p3780
aVagent
p3781
aVagents
p3782
aVambiti*
p3783
aVapplicant*
p3784
aVapplicat*
p3785
aVapprentic*
p3786
aVassign*
p3787
aVassistan*
p3788
aVassociat*
p3789
aVauditorium*
p3790
ag1592
ag1600
ag1604
aVbiolog*
p3791
aVbiz
p3792
aVblackboard*
p3793
aVbldg*
p3794
ag3166
ag2370
aVbroker*
p3795
aVbureau*
p3796
aVburnout*
p3797
aVbusiness*
p3798
ag503
ag2816
aVcalculus
p3799
aVcampus*
p3800
aVcareer*
p3801
aVceo*
p3802
aVcertif*
p3803
aVchairm*
p3804
aVchalk
p3805
ag1630
ag1631
aVclass
p3806
aVclasses
p3807
aVclassmate*
p3808
aVclassroom*
p3809
aVcollab*
p3810
ag3442
aVcolleg*
p3811
aVcom
p3812
aVcommerc*
p3813
aVcommute*
p3814
aVcommuting
p3815
aVcompanies
p3816
aVcompany
p3817
aVcomput*
p3818
aVconferenc*
p3819
aVconglom*
p3820
aVconsult*
p3821
aVconsumer*
p3822
aVcontracts
p3823
aVcorp
p3824
aVcorporat*
p3825
aVcorps
p3826
aVcounc*
p3827
aVcouns*
p3828
aVcourse*
p3829
aVcoworker*
p3830
aVcredential*
p3831
ag1663
aVcubicle*
p3832
aVcurricul*
p3833
aVcustomer*
p3834
aVcv*
p3835
aVdeadline*
p3836
aVdean*
p3837
aVdelegat*
p3838
aVdemote*
p3839
aVdepartment*
p3840
aVdept
p3841
aVdesk*
p3842
aVdiplom*
p3843
aVdirector*
p3844
aVdissertat*
p3845
aVdividend*
p3846
ag2870
ag3382
aVdotcom
p3847
aVdownsiz*
p3848
aVdropout*
p3849
ag118
ag119
aVearn*
p3850
aVecon*
p3851
aVedit*
p3852
aVeducat*
p3853
aVelementary
p3854
aVemploy*
p3855
aVesl
p3856
aVexam
p3857
aVexams
p3858
ag1759
aVexecutive*
p3859
aVexpel*
p3860
aVexpulsion*
p3861
aVfactories
p3862
aVfactory
p3863
aVfacult*
p3864
ag1765
aVfax*
p3865
aVfeedback
p3866
aVfinaliz*
p3867
aVfinals
p3868
aVfinanc*
p3869
ag1787
aVfiring
p3870
aVfranchis*
p3871
aVfrat
p3872
aVfratern*
p3873
aVfreshm*
p3874
aVgmat
p3875
aVgoal*
p3876
aVgov
p3877
aVgovern*
p3878
aVgpa
p3879
aVgrad
p3880
aVgrade*
p3881
aVgrading
p3882
aVgraduat*
p3883
aVgre
p3884
aVhardwork*
p3885
aVheadhunter*
p3886
aVhighschool*
p3887
aVhire*
p3888
aVhiring
p3889
ag3394
aVinc
p3890
aVincome*
p3891
aVincorp*
p3892
aVindustr*
p3893
aVinstruct*
p3894
aVinterview*
p3895
aVinventory
p3896
aVjd
p3897
aVjob*
p3898
aVjunior*
p3899
aVkeyboard*
p3900
aVkinderg*
p3901
aVlabor*
p3902
aVlabour*
p3903
aVlaidoff
p3904
aVlaptop*
p3905
aVlawyer*
p3906
aVlayoff*
p3907
ag1461
ag3638
aVlectur*
p3908
aVlegal*
p3909
aVlibrar*
p3910
aVlsat
p3911
aVltd
p3912
aVmailroom*
p3913
aVmajoring
p3914
aVmajors
p3915
aVmanag*
p3916
aVmanufact*
p3917
aVmarket*
p3918
aVmasters
p3919
aVmath*
p3920
aVmcat
p3921
aVmda
p3922
aVmeeting*
p3923
aVmemo
p3924
aVmemos
p3925
aVmenial
p3926
aVmentor*
p3927
aVmerger*
p3928
aVmfg
p3929
aVmfr
p3930
aVmgmt
p3931
aVmgr
p3932
aVmidterm*
p3933
ag2415
aVnegotiat*
p3934
aVngo
p3935
aVnonprofit*
p3936
aVoccupa*
p3937
aVoffice*
p3938
aVorg
p3939
ag3666
aVoutlin*
p3940
aVoutsourc*
p3941
aVoverpaid
p3942
aVovertime
p3943
aVoverworked
p3944
aVpaper*
p3945
aVpay*
p3946
aVpc*
p3947
aVpen
p3948
aVpencil*
p3949
aVpens
p3950
aVpension*
p3951
aVphd*
p3952
aVphotocop*
p3953
aVpledg*
p3954
aVpolice
p3955
aVpolicy
p3956
aVpolitical
p3957
aVpolitics
p3958
aVpractice
p3959
aVprereq*
p3960
aVpresentation*
p3961
aVpresiden*
p3962
aVprocrastin*
p3963
ag2423
aVprof
p3964
aVprofession*
p3965
aVprofessor*
p3966
ag2091
aVprofs
p3967
aVprogram*
p3968
aVproject
p3969
aVprojector*
p3970
aVprojects
p3971
aVprom
p3972
aVpromot*
p3973
aVpsych
p3974
aVpsychol*
p3975
aVpublish
p3976
aVqualifi*
p3977
aVquiz*
p3978
aVread
p3979
aVrecruit*
p3980
aVregister*
p3981
aVregistra*
p3982
aVreport*
p3983
ag153
aVresearch*
p3984
aVresource
p3985
aVresources
p3986
aVresourcing
p3987
ag155
aVresume
p3988
aVretire*
p3989
aVretiring
p3990
aVreview*
p3991
aVrhetor*
p3992
aVsalar*
p3993
aVscholar
p3994
aVscholaring
p3995
aVscholarly
p3996
aVscholars
p3997
aVscholarship*
p3998
aVscholastic*
p3999
aVschool*
p4000
aVscien*
p4001
aVsecretar*
p4002
aVsector*
p4003
aVsemester*
p4004
ag638
aVservic*
p4005
aVsession*
p4006
ag3037
ag3040
aVsophom*
p4007
aVsororit*
p4008
aVstaff*
p4009
aVstapl*
p4010
aVstipend*
p4011
aVstock
p4012
aVstocked
p4013
aVstocker
p4014
aVstocks
p4015
aVstudent*
p4016
ag1182
aVstudies
p4017
aVstudious
p4018
aVstudy*
p4019
ag2203
ag2204
aVsupervis*
p4020
aVsyllabus*
p4021
ag1198
aVtax
p4022
aVtaxa*
p4023
aVtaxed
p4024
aVtaxes
p4025
aVtaxing
p4026
aVteach*
p4027
ag3305
aVtenure*
p4028
aVtest
p4029
aVtested
p4030
aVtesting
p4031
aVtests
p4032
aVtextbook*
p4033
aVtheses
p4034
aVthesis
p4035
aVtoefl
p4036
aVtrade*
p4037
aVtrading
p4038
aVtranscript*
p4039
aVtransfer*
p4040
aVtutor*
p4041
aVtype*
p4042
aVtyping
p4043
aVundergrad*
p4044
aVunderpaid
p4045
aVunemploy*
p4046
aVuniversit*
p4047
aVunproduc*
p4048
aVupperclass*
p4049
aVvarsit*
p4050
aVvita
p4051
aVvitas
p4052
aVvocation*
p4053
aVvp*
p4054
aVwage
p4055
aVwages
p4056
aVwarehous*
p4057
aVwelfare
p4058
aVwork
p4059
aVworkabl*
p4060
ag1253
aVworker*
p4061
aVworking*
p4062
aVworks
p4063
aVxerox*
p4064
asVTentat
p4065
(lp4066
g1265
ag3503
ag1266
ag3505
ag1269
ag420
ag3508
ag421
ag422
ag486
ag192
ag3510
ag975
ag976
ag1388
ag977
ag3511
ag3512
ag3513
ag3516
ag3518
ag3519
ag3520
ag3522
ag3523
ag3525
ag1650
ag3551
ag2382
ag1024
ag2383
ag1025
ag3570
ag1725
ag3573
ag3574
ag1291
ag763
ag3595
ag1077
ag1078
ag1079
ag3598
ag3599
ag3600
ag3601
ag1879
ag129
ag1102
ag1103
ag1352
ag1353
ag1354
ag1104
ag1355
ag3602
ag3603
ag1357
ag3609
ag1921
ag3611
ag3612
ag3613
ag3629
ag3630
ag3631
ag3640
ag1303
ag1304
aVlots
p4067
ag1306
ag1307
ag1979
ag1980
ag1981
ag1982
ag1983
ag1984
ag3644
ag3646
ag1125
ag3648
ag1130
ag1131
ag1132
ag1313
ag3653
ag3654
ag3656
ag3661
ag607
ag3663
ag3664
ag3665
ag3350
ag3667
ag1322
ag3670
ag3673
ag3674
ag2086
ag3677
ag3678
ag3679
ag3684
ag3686
ag3687
ag3688
ag1160
ag1161
ag3715
ag1162
ag2149
ag2150
ag1336
ag437
ag3720
ag438
ag439
ag3352
ag644
ag1337
ag3721
ag3722
ag3723
ag3724
ag3725
ag3726
ag1190
ag1191
ag1192
ag3731
ag3732
ag662
ag3734
ag3735
ag3741
ag2279
ag3745
ag3746
ag3750
ag3753
ag3754
ag3755
ag3758
ag3759
ag2294
ag678
ag3760
ag3761
ag3762
ag3763
ag1248
ag1249
ag3765
ag3766
asVIngest
p4068
(lp4069
g2782
ag2786
ag2790
ag987
ag2794
ag2795
ag2798
ag2799
ag2800
ag2802
ag2803
ag2806
ag2808
ag2809
ag2810
ag2812
ag2813
ag2816
ag2818
ag2819
ag2823
ag2829
ag2831
ag3183
ag2834
ag2835
ag2843
ag2852
ag2857
ag2858
aVdine
p4070
ag2860
ag2861
ag2862
ag2863
ag2864
ag2865
ag2867
ag2868
ag1044
ag2875
ag2879
ag2882
ag1047
ag2883
ag2884
ag2885
ag2889
ag2667
ag2894
ag2668
ag1053
ag2895
ag2896
ag2897
ag2898
ag2901
ag2903
ag762
ag2904
ag2909
ag2910
ag2911
ag2913
ag2914
ag2927
ag2939
ag2941
ag2953
ag2961
ag2966
ag2970
ag2976
ag2979
ag2989
ag2996
ag2997
ag2998
ag3001
ag3010
ag3024
ag3027
ag3028
ag3034
ag2738
ag3044
ag3045
ag3046
ag3047
ag3049
ag3050
ag3054
ag922
ag3056
ag3059
ag932
ag3065
ag2754
ag3083
ag3084
ag2770
ag3094
aVweigh
p4071
ag3097
ag3098
ag3099
ag947
ag3101
ag3102
ag3103
ag3104
asVMotion
p4072
(lp4073
g1385
ag1386
ag1387
ag975
ag976
ag1388
ag977
ag1389
ag1390
ag981
ag982
ag983
ag1391
ag1392
ag1393
ag1394
ag1395
ag1396
ag1398
ag999
ag1399
ag1000
ag1001
ag1003
ag1401
ag1011
ag1402
ag1012
aVcarry
p4074
ag1404
ag1405
ag1014
ag1406
ag1015
ag1407
ag1408
ag1409
ag1410
ag1411
ag1412
ag1016
ag1017
ag1413
ag1415
ag1416
ag1417
ag1418
ag1419
ag1420
ag1421
ag1422
ag1423
ag1424
ag1425
ag1426
ag1045
ag1427
ag1428
ag1046
ag1430
ag1049
ag1431
ag1432
ag1433
ag1434
ag1435
ag1436
ag1437
ag1438
ag1439
ag1054
ag1441
ag1055
ag1442
ag1443
ag1444
ag1445
ag1056
ag1057
ag1446
ag1058
ag255
ag1447
ag1070
ag1071
ag1448
ag1072
ag1449
ag1450
ag1451
ag1452
ag1453
ag1454
ag1455
ag1456
ag1457
ag1297
ag1458
ag1459
ag1460
ag1461
ag1462
ag1463
ag1464
ag1465
ag1466
ag1467
ag1136
ag1468
ag1469
ag1470
ag1471
ag1473
ag1474
ag1475
ag1476
ag1478
ag1479
ag1480
ag1481
ag1482
ag1158
ag1483
ag1484
ag1485
ag1486
ag1487
ag1488
ag1489
ag1490
ag1491
ag1492
ag1493
ag1494
ag1495
ag1496
ag1497
ag1498
ag1499
ag1164
ag1501
ag1502
ag1505
ag1506
ag1507
ag1508
ag1514
ag1515
ag1516
ag165
ag1517
ag1518
ag1212
ag1521
ag1214
ag1522
ag1523
ag1524
ag1525
ag1526
ag1527
ag1528
ag1529
ag1530
ag1229
ag1531
ag1532
ag1236
asVAnger
p4075
(lp4076
g1537
ag1538
ag1553
ag1554
ag1555
ag1570
ag1571
ag1573
ag1574
ag1581
ag1582
ag1583
ag1585
ag1586
ag1589
ag1598
ag1599
ag1600
ag1610
ag705
ag1611
ag1617
ag1621
ag1634
ag1649
ag1652
ag105
ag1658
ag1659
ag1665
ag1666
ag1667
ag1668
ag1672
ag1673
aVcynic*
p4077
ag1678
ag1679
ag109
ag110
ag1695
ag1696
ag1697
ag1710
ag1719
ag1722
ag1728
ag1729
ag1747
ag1748
ag1752
ag1755
ag1756
ag1757
ag1758
ag1780
ag1782
ag1783
ag1785
ag1792
ag1059
ag1811
ag1061
ag1062
ag1812
ag1813
ag1063
ag1814
ag1815
ag1818
ag1819
ag1836
ag1852
ag1860
ag1861
ag1868
ag1089
ag1090
ag1875
ag1876
ag1091
ag1877
ag1878
ag1883
ag1887
ag1888
ag1902
ag1906
aVidiot*
p4078
ag1928
ag1931
ag1932
ag1938
ag1939
ag1940
ag1941
ag1948
ag1958
ag1115
ag1960
ag1974
ag1985
ag1986
ag1987
ag1988
ag1989
ag1990
ag1993
ag2002
ag2003
ag2004
ag2005
ag2006
ag2007
ag2013
ag2015
ag2016
ag2017
ag2026
ag2028
ag2029
ag2030
ag2042
ag2052
ag2064
ag2065
ag2067
ag2078
ag2083
ag2087
ag2093
ag2094
ag2095
ag2098
ag2100
ag2101
ag2102
ag2103
ag2104
ag2108
ag2114
ag2119
ag2123
ag2128
ag2134
ag2136
ag2141
ag2142
ag2155
ag2167
ag2169
ag2173
ag2175
ag2186
ag168
ag2200
ag1183
ag1184
ag2205
ag1185
ag2206
ag2228
ag2230
ag2232
ag2233
aVterrify
p4079
ag2249
ag2251
ag2254
ag2263
ag2277
ag2306
ag2307
ag2310
ag2311
ag2312
ag2313
ag2319
ag2320
ag2321
ag2322
ag2323
ag2326
ag2335
asVAchiev
p4080
(lp4081
Vabilit*
p4082
aVable*
p4083
ag3776
aVace
p4084
ag3777
aVacquir*
p4085
aVacquisition*
p4086
aVadequa*
p4087
ag1387
ag1548
ag480
ag3783
aVapprov*
p4088
aVattain*
p4089
aVattempt*
p4090
aVauthorit*
p4091
ag1592
aVbeat
p4092
ag1600
ag1608
ag1609
ag1614
ag3797
aVcapab*
p4093
ag3172
ag1630
ag1631
ag1409
ag3531
aVcompet*
p4094
ag2376
ag3544
ag1646
ag1647
ag1648
aVconquer*
p4095
aVconscientious*
p4096
ag106
ag1661
ag1662
aVcrown*
p4097
ag1684
ag1698
ag1699
aVdiligen*
p4098
ag1722
aVdomote*
p4099
ag1045
ag3849
ag3850
ag2384
ag1740
aVeffort*
p4100
aVelit*
p4101
aVenabl*
p4102
aVendeav*
p4103
ag1759
ag1765
ag3867
ag546
ag548
ag2389
ag2390
aVfounding
p4104
aVfulfill*
p4105
aVgain*
p4106
ag3876
ag1893
ag1898
ag1899
ag1356
ag1916
ag1918
ag1919
ag1359
aVincapab*
p4107
ag1920
aVincompeten*
p4108
ag1922
ag572
aVirresponsible*
p4109
aVking*
p4110
ag1956
ag1957
ag1461
ag3639
ag138
ag1969
ag1970
ag1971
ag1972
ag1973
ag1118
aVmaster
p4111
aVmastered
p4112
aVmasterful*
p4113
aVmastering
p4114
aVmastermind*
p4115
ag3919
aVmastery
p4116
aVmedal*
p4117
aVmediocr*
p4118
ag2415
aVobtain*
p4119
ag2037
ag3666
ag2418
ag2420
aVovercome
p4120
aVoverconfiden*
p4121
aVovertak*
p4122
ag2059
aVperform*
p4123
aVpersever*
p4124
aVpersist*
p4125
aVplan
p4126
aVplanned
p4127
aVplanner*
p4128
aVplanning
p4129
aVplans
p4130
aVpotential*
p4131
aVpower*
p4132
ag3959
ag2081
ag3962
ag2088
ag2090
ag2423
aVproficien*
p4133
aVprogress
p4134
ag3973
ag2096
ag2426
aVqueen
p4135
aVqueenly
p4136
aVquit
p4137
aVquitt*
p4138
aVrank
p4139
aVranked
p4140
aVranking
p4141
aVranks
p4142
aVrecover*
p4143
ag153
ag2116
aVresourceful*
p4144
ag155
ag2121
aVskill
p4145
aVskilled
p4146
aVskills
p4147
ag2434
ag2435
ag2436
ag2437
ag2438
aVstrateg*
p4148
ag2194
aVstriv*
p4149
ag2196
ag2203
ag2204
ag2214
aVsuperb*
p4150
aVsurviv*
p4151
ag3305
ag380
ag1215
ag1216
ag2265
ag1217
aVtrying
p4152
aVunable
p4153
aVunbeat*
p4154
ag4048
ag2293
aVvictor*
p4155
ag2338
ag2339
ag2340
ag1247
aVwork
p4156
ag4060
ag1253
ag4061
ag4062
ag4063
asVSwear
p4157
(lp4158
g2625
aVarsehole*
p4159
ag2626
ag2629
ag2630
ag1586
ag1598
ag1610
ag2637
ag2643
ag2648
ag2649
ag2653
ag2654
ag1658
ag1659
ag1672
ag1678
aVdang
p4160
aVdarn
p4161
ag2659
ag2660
ag1728
ag2881
ag1061
ag1062
ag1812
ag1813
ag1063
ag1836
aVheck
p4162
ag1887
ag2933
aVjeez
p4163
aVmofo
p4164
aVmotherf*
p4165
aVnigger*
p4166
ag2067
ag2087
ag2726
ag3022
ag2142
ag2155
ag2176
aVsonofa*
p4167
ag1183
ag1184
ag1185
ag2756
ag2757
ag2758
ag2759
aVwanker*
p4168
asVDeath
p4169
(lp4170
Vautops*
p4171
ag2783
aVbereave*
p4172
aVburial*
p4173
aVburied
p4174
aVbury
p4175
aVcasket*
p4176
aVcasualt*
p4177
aVcemet*
p4178
aVcoffin*
p4179
aVcoroner*
p4180
aVcorpse*
p4181
aVcremat*
p4182
aVcrypt*
p4183
aVdead
p4184
aVdeath*
p4185
aVdecease*
p4186
aVdemise
p4187
aVdie
p4188
ag1031
ag1032
aVDOA
p4189
aVdrown*
p4190
aVdying
p4191
aVembalm*
p4192
aVepidemic*
p4193
aVexecution*
p4194
aVexterminat*
p4195
ag1769
aVfuner*
p4196
aVgenocid*
p4197
aVghost*
p4198
ag1850
ag1853
ag1854
aVhearse*
p4199
aVholocaust*
p4200
aVhomocid*
p4201
ag568
ag1948
aVlethal*
p4202
aVlynch*
p4203
aVmanslaughter*
p4204
aVmassacre*
p4205
aVmausoleum*
p4206
aVmorgue*
p4207
aVmortal*
p4208
aVmortician*
p4209
ag2014
ag2015
aVobit*
p4210
aVod
p4211
aVoded
p4212
aVoverdosed
p4213
aVpallbearer*
p4214
aVplague*
p4215
aVreaper*
p4216
aVslaughter*
p4217
aVsuicid*
p4218
aVtomb*
p4219
aVurn*
p4220
ag2319
asVSocial
p4221
(lp4222
g3435
ag968
ag969
ag970
ag3502
aVadult
p4223
aVadults
p4224
aVadvice
p4225
ag3780
aVaffair*
p4226
ag3436
ag420
ag421
aVapolog*
p4227
ag1582
aVarmies
p4228
aVarmy
p4229
ag984
ag985
aVasking
p4230
ag986
aVassembl*
p4231
aVaunt*
p4232
aVbabe*
p4233
aVbabies
p4234
aVbaby*
p4235
aVbambino*
p4236
ag3154
ag3155
ag3437
ag1611
aVboy
p4237
ag3438
aVboy's
p4238
aVboys*
p4239
aVbro
p4240
aVbros
p4241
aVbrother*
p4242
ag3439
ag3440
ag3441
ag504
aVcall
p4243
ag1002
aVcaller*
p4244
aVcalling
p4245
aVcalls
p4246
aVcaptain
p4247
ag3172
aVcell
p4248
aVcellphon*
p4249
aVcells
p4250
aVcellular*
p4251
ag3175
aVchick
p4252
aVchick'*
p4253
aVchicks
p4254
aVchild
p4255
aVchildren*
p4256
aVchild's
p4257
aVcitizen
p4258
aVcitizen'*
p4259
aVcitizens
p4260
ag3442
aVcomment*
p4261
aVcommun*
p4262
ag3443
ag3444
aVcompanionship*
p4263
ag1642
ag1643
ag3445
ag2494
aVconfide
p4264
aVconfided
p4265
aVconfides
p4266
aVconfiding
p4267
aVcongregat*
p4268
ag3821
aVcontact*
p4269
ag105
aVconvers*
p4270
ag3827
ag3828
aVcousin*
p4271
ag3830
aVcrowd*
p4272
aVcultur*
p4273
aVdad*
p4274
aVdating
p4275
aVdaughter*
p4276
aVdeal
p4277
ag1026
ag1027
ag3464
aVdescribing
p4278
ag3568
aVdiscuss*
p4279
aVdivorc*
p4280
aVemail
p4281
aVemail'*
p4282
ag1048
aVemailer*
p4283
aVemailing
p4284
aVemails
p4285
ag1746
ag1747
ag1748
ag423
ag424
ag425
aVex
p4286
ag3446
ag3447
aVexcus*
p4287
aVexes
p4288
ag3448
ag3449
aVexhubby*
p4289
aVexhusband*
p4290
ag1050
ag1051
ag3581
ag1052
aVexpress*
p4291
aVexwife*
p4292
aVexwive*
p4293
ag3195
ag3196
aVfather*
p4294
ag3450
aVfemale*
p4295
ag1782
ag3451
ag1785
ag1788
aVfolks
p4296
ag1797
ag1798
ag1059
ag1809
ag3205
aVgather*
p4297
ag1064
aVgentlem*
p4298
ag3452
aVgirl
p4299
ag3453
aVgirl's
p4300
aVgirls*
p4301
ag1067
ag1827
ag1069
ag1828
ag1840
aVgrandchil*
p4302
aVgranddad*
p4303
aVgranddau*
p4304
aVgrandf*
p4305
aVgrandkid*
p4306
aVgrandm*
p4307
aVgrandpa*
p4308
aVgrandson*
p4309
aVgranny
p4310
aVgroup*
p4311
aVgrownup*
p4312
aVgrudge*
p4313
ag3454
aVguy*
p4314
aVhe
p4315
ag782
ag783
ag784
ag785
ag3
ag4
ag1096
aVhello*
p4316
aVhelp
p4317
ag1889
ag1890
ag1891
ag1098
ag5
ag6
ag7
ag8
ag9
aVhey
p4318
aVhi
p4319
ag10
ag11
ag12
ag788
aVhubby
p4320
aVhuman*
p4321
aVhusband*
p4322
aVindividual*
p4323
aVinfant
p4324
aVinfant's
p4325
aVinfants*
p4326
ag3617
ag3622
ag1928
aVinteract*
p4327
ag1931
ag3895
aVinvolv*
p4328
aVkid
p4329
aVkid'*
p4330
ag1947
aVkids*
p4331
aVkin
p4332
aVladies
p4333
aVlady
p4334
aVlady's
p4335
aVlanguage*
p4336
ag21
ag22
aVletter
p4337
ag799
ag800
ag801
ag802
ag803
aVlove
p4338
ag1120
ag1976
ag1121
ag1977
aVma
p4339
aVma'am
p4340
aVmail
p4341
aVmailed
p4342
aVmailer*
p4343
aVmailing
p4344
aVmails
p4345
aVmale
p4346
aVmales
p4347
aVmale's
p4348
aVmam
p4349
aVman
p4350
aVman's
p4351
aVmarriag*
p4352
aVmarrie*
p4353
aVma's
p4354
ag3455
ag3456
ag3457
aVmating
p4355
aVmeet
p4356
ag3923
aVmeets
p4357
aVmembers
p4358
aVmen
p4359
aVmen'*
p4360
aVmention*
p4361
aVmessag*
p4362
ag1129
aVmob
p4363
aVmobb*
p4364
aVmobs
p4365
aVmom
p4366
aVmomma*
p4367
aVmommy*
p4368
aVmoms
p4369
aVmom's
p4370
aVmother
p4371
aVmotherly
p4372
aVmothers
p4373
aVmr
p4374
aVmrs
p4375
aVmum
p4376
aVmummy*
p4377
aVmums
p4378
aVmum's
p4379
ag3655
ag3934
ag3410
ag3458
aVnephew*
p4380
aVnewborn*
p4381
aVniece*
p4382
aVoffer*
p4383
ag3666
ag28
ag29
ag30
aVoutsider*
p4384
aVoverhear*
p4385
aVowner*
p4386
aVpa
p4387
ag3459
ag3460
aVpappy
p4388
aVparent*
p4389
aVparticipant*
p4390
aVparticipat*
p4391
ag2053
ag3461
ag2054
aVpa's
p4392
aVpeople*
p4393
aVperson
p4394
ag2060
aVpersons
p4395
aVperson's
p4396
aVpersua*
p4397
aVphone*
p4398
aVphoning
p4399
ag2081
aVprivate
p4400
aVprovide
p4401
aVpublic
p4402
ag3686
ag2107
ag1483
ag149
aVrelationship*
p4403
aVrelatives
p4404
aVreplie*
p4405
aVreply*
p4406
aVrequest*
p4407
aVrespond*
p4408
aVrole*
p4409
ag335
ag336
ag337
ag338
ag339
aVrumor*
p4410
aVrumour*
p4411
ag855
ag866
ag3713
aVsecretive*
p4412
ag3714
aVself
p4413
ag1499
ag1164
ag2152
ag1168
ag2153
ag2154
ag31
ag32
ag33
ag34
ag35
aVsir
p4414
aVsis
p4415
aVsister*
p4416
aVsocial*
p4417
aVsociet*
p4418
ag437
ag438
aVson
p4419
aVsons
p4420
aVson's
p4421
ag2184
ag902
ag904
ag905
ag911
aVspous*
p4422
aVstepchild*
p4423
aVstepfat*
p4424
aVstepkid*
p4425
aVstepmot*
p4426
ag3729
ag3730
aVsuggest*
p4427
ag2223
ag2224
aVtalk
p4428
aVtalkative*
p4429
ag1197
aVtalker*
p4430
aVtalking
p4431
aVtalks
p4432
ag3305
ag2230
aVtelephon*
p4433
aVtell
p4434
aVtelling
p4435
aVtells
p4436
ag36
ag37
ag38
ag39
ag40
ag41
ag42
ag43
ag44
ag1207
ag1208
ag45
ag46
ag47
ag48
ag49
ag50
ag1213
ag1522
aVuncle
p4437
aVuncles
p4438
aVuncle's
p4439
aVur
p4440
ag51
ag1529
ag52
aVwed
p4441
ag53
aVwedding*
p4442
aVweds
p4443
ag2329
ag54
ag55
ag56
ag57
ag458
ag459
ag460
ag461
ag462
ag463
ag1239
ag1240
ag464
aVwife*
p4444
ag2336
aVwive*
p4445
aVwoman
p4446
aVwomanhood
p4447
aVwomanly
p4448
aVwoman's
p4449
aVwomen*
p4450
ag3768
ag3769
ag1261
ag58
ag59
ag60
ag61
ag62
ag63
ag64
ag65
ag66
aVyour
p4451
ag68
ag69
ag70
ag71
ag72
asVNonflu
p4452
(lp4453
Ver
p4454
ag3122
ag2159
aVuh
p4455
aVum
p4456
aVumm*
p4457
aVwell
p4458
aVzz*
p4459
asVFamily
p4460
(lp4461
g4232
ag4240
ag4241
ag4242
ag4271
ag4274
ag4276
ag4286
ag4288
ag4289
ag4290
ag4292
ag4293
ag3195
ag3196
ag4294
ag4296
ag4302
ag4303
ag4304
ag4305
ag4306
ag4307
ag4308
ag4309
ag4310
ag4320
ag4322
ag4332
ag4339
ag4353
ag4354
ag4366
ag4367
ag4368
ag4369
ag4370
ag4371
ag4373
ag4376
ag4377
ag4378
ag4379
ag4380
ag4382
ag4387
ag4388
ag4389
ag4392
ag4404
ag4415
ag4416
ag4419
ag4420
ag4421
ag4422
ag4423
ag4424
ag4425
ag4426
ag4437
ag4438
ag4439
ag4444
ag4445
asVPronoun
p4462
(lp4463
g420
ag421
ag422
ag423
ag424
ag425
ag3
ag4
ag5
ag6
ag7
ag8
ag9
ag10
ag11
ag12
ag13
ag14
ag15
ag16
ag17
ag18
ag426
ag427
ag428
ag429
ag430
ag431
ag432
ag433
ag19
ag20
ag21
ag22
ag23
ag24
ag25
ag26
ag434
ag27
ag435
ag436
ag28
ag29
ag30
ag31
ag32
ag33
ag34
ag35
ag437
ag438
ag439
ag354
ag440
ag441
ag442
ag443
ag444
ag445
ag446
ag447
ag36
ag37
ag38
ag39
ag448
ag40
ag41
ag42
ag43
ag44
ag45
ag46
ag47
ag449
ag450
ag451
ag48
ag49
ag50
ag51
ag52
ag53
ag54
ag55
ag56
ag57
ag452
ag453
ag454
ag455
ag456
ag457
ag458
ag459
ag460
ag461
ag462
ag463
ag464
ag58
ag59
ag60
ag61
ag62
ag63
ag64
ag65
ag66
aVyour
p4464
ag68
ag69
ag70
ag71
ag72
asVFunct
p4465
(lp4466
g3341
ag2447
ag188
ag3117
ag189
aVactually
p4467
ag468
ag474
ag2448
ag480
ag972
ag973
ag1264
ag1265
ag2449
ag1266
aValso
p4468
aValthough
p4469
ag974
ag191
ag3342
ag3140
ag1268
ag1269
ag420
ag485
ag421
ag422
aVanyway*
p4470
ag192
ag3510
ag978
ag979
ag980
ag195
ag2450
ag196
aVatho
p4471
ag197
ag198
ag491
aVbasically
p4472
ag988
ag989
ag2369
ag990
ag991
ag992
ag993
ag492
ag2451
ag994
ag200
ag204
ag206
ag1270
aVbest
p4473
ag2452
ag207
ag3467
ag211
ag1274
ag3346
ag2453
ag1004
ag1005
ag1006
ag1007
ag1275
ag3530
ag3538
ag511
ag1018
ag1019
ag1020
ag1021
ag1022
ag1276
ag2380
ag1687
ag2454
ag1028
ag1029
ag1030
ag1277
ag1036
ag1037
ag1038
ag1039
ag1040
ag1041
ag1042
ag1043
ag1278
ag236
ag3468
ag522
ag1279
ag3469
ag1280
ag3470
ag1281
ag1282
ag1283
ag1284
aVespecially
p4474
ag1285
aVeven
p4475
ag534
ag535
ag1286
ag423
ag424
ag425
ag1287
ag2455
aVextenet
p4476
ag1289
ag1290
ag1291
ag1292
ag3471
ag546
ag547
ag548
ag3472
ag2456
ag1293
ag3473
ag555
ag2457
ag256
ag3595
ag1294
ag1295
ag1080
ag1081
ag1082
ag3474
ag1086
ag1087
ag1088
ag1092
ag1093
ag1094
ag1095
ag3
ag4
ag5
aVhere
p4477
ag1099
ag1100
ag6
ag7
ag8
ag9
ag1296
ag10
ag11
ag12
ag1353
ag2395
aVhowever
p4478
ag3475
ag13
ag14
ag15
ag1357
ag16
ag17
ag18
ag566
ag269
ag570
ag272
ag273
aVinstead
p4479
ag278
ag1108
ag1109
ag1110
ag426
ag427
ag428
ag1298
ag429
ag430
ag431
ag432
ag433
ag19
ag20
ag3348
ag1299
ag580
ag1300
ag1301
aVlet
p4480
ag21
ag22
ag1302
ag1303
ag1304
ag1305
ag1306
ag1307
ag1308
ag1311
ag1125
ag3648
ag23
ag1130
ag1131
ag1132
ag3476
ag24
ag1312
ag1313
ag3653
ag1314
ag1315
ag1137
ag1138
ag1139
ag1140
ag1141
ag1142
ag25
ag26
ag304
ag3656
ag1363
ag1364
ag1365
aVnegat*
p4481
ag1316
ag595
ag3477
aVno
p4482
ag434
ag1317
aVnope
p4483
aVnor
p4484
ag3349
aVnothing
p4485
ag606
ag311
ag2458
ag312
ag3663
ag313
ag615
ag3478
aVones
p4486
ag27
aVonly
p4487
ag314
ag3350
ag435
ag436
aVotherwise
p4488
ag1146
ag1147
ag1148
ag1149
ag1150
ag1151
ag1152
ag28
ag29
ag30
ag318
ag320
ag323
ag1319
ag1321
ag1322
ag3670
ag1324
ag1325
ag2459
aVprimarily
p4489
ag3679
ag3479
ag625
aVrarely
p4490
ag1370
ag3351
ag1327
ag1328
ag1329
ag3480
ag341
ag2146
ag3481
ag1332
ag1165
ag1166
ag1167
ag31
ag32
ag33
ag34
ag35
ag1169
ag1170
ag1171
ag1172
ag1173
ag1174
ag2433
ag1335
ag3482
aVso
p4491
ag1336
ag437
ag3720
ag438
ag439
ag1337
ag354
ag645
aVsooo*
p4492
ag656
ag440
aVsuch
p4493
ag3483
ag3484
ag2460
ag441
ag442
ag443
ag444
ag445
ag446
ag447
ag3343
ag36
ag37
ag38
ag39
ag665
aVthere
p4494
ag1205
ag1206
ag448
ag40
ag41
ag42
ag43
ag44
ag1207
ag1208
ag45
ag46
ag47
ag449
ag3485
ag3486
ag450
aVtho
p4495
ag451
ag48
aVthough
p4496
ag3487
ag49
ag3488
ag2461
ag2462
ag50
ag667
ag668
ag2464
ag1339
ag1340
aVtoo
p4497
ag1341
ag3739
ag381
ag3489
ag1342
ag2272
ag3490
ag3491
ag3492
ag3493
ag3129
ag383
ag384
ag1343
ag2465
ag675
ag2466
ag387
ag388
ag51
ag678
ag1344
aVvery
p4498
ag1379
ag1233
ag1234
ag1235
ag52
ag53
ag4458
ag54
ag1237
ag55
ag1238
ag56
ag57
ag452
ag453
ag454
ag455
ag685
ag686
ag399
aVwhereas
p4499
ag400
ag401
ag3355
ag456
ag457
ag687
ag458
ag459
ag460
ag1346
ag461
ag462
ag463
ag464
ag1241
ag2467
ag405
ag2468
ag1250
ag1251
ag1347
ag1255
ag1256
ag1257
ag1258
ag1259
ag58
ag59
ag60
ag61
ag694
ag62
ag63
ag64
ag65
ag66
aVyour
p4500
ag68
ag69
ag70
ag71
ag72
ag3494
ag3495
asVFeel
p4501
(lp4502
g716
ag720
ag726
ag732
ag738
ag739
ag741
ag239
ag240
ag241
ag747
ag748
ag749
ag750
ag752
ag753
ag757
ag758
ag760
ag761
ag763
ag767
ag772
ag773
ag774
ag775
ag776
ag777
ag778
ag779
ag780
ag786
ag787
ag789
ag790
ag795
ag798
ag810
ag828
ag829
ag830
ag831
ag848
ag849
ag850
ag851
ag852
ag853
ag859
ag860
ag861
ag871
ag880
ag887
ag888
ag889
ag891
ag894
ag913
ag919
ag920
ag372
ag373
ag375
ag174
ag935
ag945
ag947
ag948
ag949
ag950
ag951
ag952
ag953
ag954
asVCertain
p4503
(lp4504
g3498
ag3117
ag3499
ag1264
ag3504
ag482
ag3509
ag1587
ag3521
ag1629
ag3529
ag3530
ag3533
ag1641
ag3534
ag3535
ag3536
ag3537
ag3538
ag3539
ag1646
ag1647
ag1648
ag3552
ag3558
ag1686
ag1687
ag3561
ag3566
ag3571
ag1283
ag3576
ag535
ag1286
ag423
ag425
ag3578
ag3579
ag3583
ag1290
ag3584
ag3585
ag3586
ag550
ag3590
ag3591
ag2502
ag3592
ag3593
ag3597
ag3608
ag3610
ag3614
ag3615
ag3626
ag3627
ag1137
ag1138
ag1139
ag1140
ag1141
ag1142
ag3657
ag595
ag3662
ag2059
ag2080
ag3675
ag3680
ag3681
ag3683
ag2220
ag1341
ag3739
ag3740
ag2271
ag2272
ag2274
ag3743
ag3747
ag3752
ag3756
ag3764
asVInsight
p4505
(lp4506
g1539
ag1540
ag967
ag1541
ag1542
ag3500
ag3501
ag968
ag969
ag970
ag3502
ag472
ag3506
ag3507
ag1579
ag3513
ag3514
ag3515
ag989
ag990
ag991
ag992
ag2482
ag995
ag996
ag997
ag3517
ag3524
ag3526
ag3527
ag3528
ag3531
ag3532
ag3540
ag3541
ag3542
ag3543
ag2376
ag3544
ag2494
ag3545
ag3546
ag3547
ag3548
ag3549
ag3550
ag3553
ag3554
ag3555
ag3556
ag2381
ag3557
ag3559
ag3560
ag1698
ag3562
ag1699
ag3563
ag3564
ag3565
ag3567
ag3568
ag3569
ag3572
ag2384
ag3575
ag3577
ag3580
ag1050
ag1051
ag3581
ag1052
ag3582
ag1433
ag747
ag748
ag749
ag750
ag3587
ag3588
ag1797
ag1798
ag1060
ag3596
ag3604
ag3605
ag3606
ag3607
ag2402
ag2403
ag2404
ag2405
ag3616
ag3617
ag3618
ag3619
ag3620
ag3621
ag3622
ag3623
ag3624
ag1927
ag3625
ag2409
ag1111
ag1112
ag3632
ag3633
ag3634
ag3635
ag3636
ag1113
ag3638
ag3639
ag3641
ag3642
ag1126
ag3649
ag1127
ag1128
ag3650
ag3652
ag2415
ag3659
ag3660
ag3668
ag3669
ag3672
ag1368
ag3676
ag3681
ag3682
ag3685
ag3686
ag2427
ag3691
ag3692
ag2429
ag3693
ag3694
ag3695
ag3696
ag3697
ag3698
ag3699
ag3700
ag3701
ag3702
ag3703
ag3704
ag3705
ag3706
ag3707
ag3708
ag2116
ag3709
ag3710
ag3711
ag3712
ag3713
ag3714
ag1160
ag1161
ag3715
ag1162
ag3716
ag1163
ag3717
ag3718
ag2434
ag2435
aVsolved
p4507
ag2437
ag2438
ag3728
ag3733
ag2222
ag1209
ag3736
ag3737
ag1210
ag1211
ag3738
ag3742
ag3744
ag1221
ag3748
ag3749
ag1222
ag1223
ag3757
ag1248
ag1249
ag3765
ag3766
asVHumans
p4508
(lp4509
g4223
ag4224
ag4233
ag4234
ag4235
ag4236
ag4237
ag4238
ag4239
ag4252
ag4253
ag4254
ag4255
ag4256
ag4257
ag4258
ag4259
ag4260
ag4295
ag4298
ag4299
ag4300
ag4301
ag4312
ag4314
ag4321
ag4323
ag4324
ag4325
ag4326
ag4329
ag4330
ag4331
ag4333
ag4334
ag4335
ag4340
ag4346
ag4347
ag4348
ag4349
ag4350
ag4351
ag4358
ag4359
ag4360
aVmr
p4510
ag4375
ag4381
ag4390
ag3461
ag4393
ag4394
ag4395
ag4396
aVself
p4511
ag4414
ag4418
ag4446
ag4449
ag4450
asVSad
p4512
(lp4513
g75
ag1543
ag1544
ag1556
ag1557
ag1565
ag1620
ag1023
ag1664
ag1669
ag1670
ag1671
ag1677
ag1684
ag1691
ag1692
ag1693
ag1700
ag1705
ag1707
ag116
ag1711
ag1712
ag1715
ag1723
ag1727
ag242
ag1765
ag1770
ag1791
ag1833
ag1850
ag1853
ag1854
ag1855
ag1880
ag1881
ag1892
ag1896
ag1900
ag1910
ag1359
aVinferior*
p4514
ag1936
ag1954
ag1967
ag1968
ag1969
ag1970
ag1971
ag1972
ag1973
ag1118
ag291
ag1995
ag2000
ag1133
ag1134
ag1135
ag2001
ag2014
ag139
ag2043
ag2056
ag2062
ag2068
aVpity*
p4515
ag1372
ag2109
ag2113
ag2115
ag2129
ag2130
ag2131
ag2132
ag2133
ag2176
ag2177
ag2178
ag2179
ag2181
ag2182
ag2207
ag1186
ag2208
ag2209
ag2210
ag2229
ag2256
aVtragic*
p4516
ag2286
ag2287
ag2293
aVuseless*
p4517
ag2327
ag2331
ag2332
ag2333
ag2344
aVworthless*
p4518
ag1382
asVPast
p4519
(lp4520
g967
ag970
ag971
ag976
ag982
ag985
ag987
ag989
ag993
ag493
ag996
ag998
ag1001
ag1002
ag1003
ag1009
ag1011
ag1014
ag1015
ag1021
ag1022
ag1023
ag1024
ag1027
ag1028
ag1029
ag1030
ag1031
ag1034
ag1041
ag1044
ag1045
ag1046
ag1047
ag1048
ag526
ag1049
ag1051
ag1053
ag750
ag1054
ag1055
ag1057
ag123
ag1059
ag1060
ag1062
ag1064
ag1068
ag1072
ag1074
ag1076
ag1078
ag1080
ag1081
ag1082
ag1084
ag1090
ag783
ag128
ag1097
ag1103
ag137
ag1111
ag1115
ag1116
ag800
ag1117
ag806
ag1118
ag1120
ag1122
ag1128
ag1129
ag1134
ag1136
ag1141
ag1142
ag1144
ag1154
ag1156
ag1157
ag1158
ag855
ag1159
ag865
ag1161
ag877
ag1163
ag1164
ag1168
ag1173
ag1174
ag1175
ag1176
ag1177
ag1178
ag911
ag651
ag1179
ag1180
ag164
ag1181
ag1182
ag1184
ag1186
ag1188
ag1191
ag1194
ag1197
ag1198
ag1200
ag1203
ag1211
ag1212
ag1213
ag1214
ag1215
ag1219
ag1223
ag1225
ag1228
ag178
ag1229
ag1231
ag1233
ag1234
ag1235
ag1236
ag1237
ag1238
ag56
ag57
ag1243
ag1245
ag1246
ag1247
ag1249
ag1252
ag1253
ag1254
ag1258
ag1259
ag1260
ag1261
asVSee
p4521
(lp4522
g704
ag706
ag707
ag708
ag709
ag710
ag711
ag712
ag714
ag715
ag718
ag723
ag725
ag728
ag729
ag730
ag733
ag745
ag746
ag764
ag765
ag766
ag768
ag770
ag771
ag792
ag804
ag805
ag806
ag807
ag808
ag809
ag823
ag826
ag827
ag833
ag837
ag838
ag839
ag840
ag841
ag842
ag849
ag865
ag867
ag868
ag869
ag873
ag875
ag876
ag877
ag878
ag879
ag881
ag882
ag883
ag885
ag912
ag915
ag916
ag924
ag925
ag936
ag938
ag939
ag940
ag941
ag942
ag946
ag957
ag958
ag962
asVFuture
p4523
(lp4524
g1021
ag1022
ag1073
ag1075
ag1096
ag16
ag429
ag430
ag1125
ag1130
ag1137
ag1138
ag1139
ag1140
ag1141
ag1142
ag1146
ag1147
ag1148
ag1149
ag1150
ag1151
ag1152
ag1165
ag33
ag1169
ag1170
ag1171
ag1172
ag1173
ag1174
ag444
ag445
ag43
ag44
ag54
ag461
ag462
ag1241
ag1250
ag1251
ag1255
ag1256
ag1257
ag1258
ag1259
ag65
ag66
asVAdverbs
p4525
(lp4526
g2447
ag3117
ag4467
ag474
ag4468
ag4470
ag192
ag3510
ag195
ag491
ag4472
ag207
ag3530
ag3538
ag511
ag1687
ag4474
ag4475
ag534
ag535
ag555
ag3595
ag4477
ag1099
ag1100
ag1353
ag2395
ag4478
ag566
ag4479
ag3348
ag580
ag3648
ag3653
ag3656
ag606
ag3663
ag4487
ag3670
ag4489
ag3679
ag1479
ag625
ag4490
ag1370
ag3351
ag2146
aVsimply
p4527
ag4491
ag3720
ag645
ag4492
ag656
ag4493
ag4494
ag1205
ag1206
ag4495
ag4496
ag4497
ag3739
ag2272
ag678
ag4498
ag4458
aVwhen
p4528
ag686
ag399
ag694
asVSheHe
p4529
(lp4530
g4315
ag3
ag4
ag5
ag6
ag7
ag8
ag9
ag10
ag11
ag12
ag27
ag31
ag32
ag33
ag34
ag35
asVMoney
p4531
(lp4532
Vaccount*
p4533
aVatm
p4534
aVatms
p4535
aVauction*
p4536
aVaudit
p4537
aVaudited
p4538
aVauditing
p4539
aVauditor
p4540
aVauditors
p4541
aVaudits
p4542
aVbank*
p4543
aVbargain*
p4544
aVbeggar*
p4545
aVbegging
p4546
ag3518
ag3519
ag3520
aVbill
p4547
aVbilled
p4548
aVbilling*
p4549
aVbills
p4550
ag1614
aVborrow*
p4551
ag998
ag3795
aVbuck
p4552
aVbucks
p4553
aVbudget*
p4554
ag3798
aVbuy*
p4555
aVcash*
p4556
ag3170
aVcent
p4557
aVcents
p4558
ag1632
aVcheap*
p4559
aVcheck
p4560
aVchecking
p4561
aVchecks
p4562
aVchequ*
p4563
aVcoin
p4564
aVcoins
p4565
aVcompensat*
p4566
ag3822
ag3825
aVcost*
p4567
aVcoupon*
p4568
ag1663
aVcurrenc*
p4569
ag3834
aVdebit*
p4570
aVdebt*
p4571
aVdeposit*
p4572
aVdime*
p4573
aVdinar*
p4574
aVdinero
p4575
aVdiscount*
p4576
ag3846
aVdollar*
p4577
aVdonat*
p4578
ag3851
aVembezzl*
p4579
aVeuro
p4580
aVeuros
p4581
aVexchang*
p4582
aVexpens*
p4583
aVfee
p4584
aVfees
p4585
ag3869
aVfortune*
p4586
aVfranc
p4587
ag3871
aVfrancs
p4588
ag1801
ag1802
aVfund
p4589
aVfunded
p4590
aVfunding
p4591
aVfunds
p4592
aVgambl*
p4593
ag1852
ag3891
aVinexpens*
p4594
aVinherit*
p4595
aVinsurance
p4596
aVinvest*
p4597
aVIRS
p4598
aVjackpot*
p4599
aVkopek*
p4600
aVkron*
p4601
ag3399
ag3400
aVlira
p4602
aVloan*
p4603
aVlotter*
p4604
aVmastercard*
p4605
aVmerchant*
p4606
aVmoney*
p4607
aVmonopol*
p4608
ag3409
aVnickel*
p4609
ag3942
ag3943
aVowe
p4610
ag1154
ag1155
aVowing
p4611
ag1156
ag3946
aVpence
p4612
aVpennies
p4613
aVpenny
p4614
aVpeso
p4615
aVpesos
p4616
aVpoor*
p4617
aVportfolio*
p4618
aVpoverty*
p4619
aVprice*
p4620
aVprici*
p4621
ag2091
aVpurchas*
p4622
aVrebate*
p4623
aVrecession*
p4624
aVrefund*
p4625
aVreimburs*
p4626
ag3419
aVretail*
p4627
aVrevenue*
p4628
ag2122
aVruble*
p4629
aVrupee*
p4630
ag3993
aVsale
p4631
aVsales
p4632
aVsaving*
p4633
ag3998
aVsell
p4634
aVseller*
p4635
aVselling
p4636
aVsells
p4637
aVshilling*
p4638
ag3277
ag3278
ag3279
ag3280
ag1177
aVspend
p4639
aVspender
p4640
aVspending
p4641
aVspends
p4642
ag1178
ag4011
ag4015
aVstore
p4643
ag4022
ag4023
ag4024
ag4025
ag4026
aVthrift*
p4644
ag4037
ag4038
aVtuition
p4645
ag4045
ag2301
aVvisa*
p4646
ag4055
aVwager*
p4647
ag4056
ag2325
aVworth
p4648
aVyen
p4649
aVyuan
p4650
asVNegate
p4651
(lp4652
g972
ag973
ag979
ag980
ag1005
ag1006
ag1007
ag1019
ag1020
ag1029
ag1030
ag1038
ag1039
ag1042
ag1043
ag1081
ag1082
ag1087
ag1088
ag1093
ag1094
ag1109
ag1110
ag1138
ag1139
ag1140
ag1363
ag1364
ag1365
ag4481
ag1316
ag595
ag4482
ag434
ag1317
ag4483
ag4484
ag3349
ag4485
ag311
ag1148
ag1149
ag1150
ag1166
ag1167
ag1170
ag1171
ag1172
ag3129
ag1234
ag1235
ag1238
ag2468
ag1250
ag1251
ag1256
ag1257
asVHealth
p4653
(lp4654
g2777
ag1543
ag1544
ag2778
ag2779
ag2780
ag2781
ag2782
ag2783
ag2784
ag2785
ag2786
ag2787
ag2788
ag2789
ag2791
ag2792
ag2793
ag2796
ag2797
ag2802
ag2803
ag2804
ag2805
ag710
ag2811
ag2813
ag2814
ag2817
ag2820
ag2821
ag2822
ag2824
ag2825
ag2826
ag2827
ag2828
ag2830
ag2832
ag2833
ag2836
ag2837
ag2840
ag2841
ag2842
ag2844
ag2845
ag2846
ag2848
ag734
ag2849
ag2850
ag2851
ag2853
ag2854
ag2855
ag2856
ag2858
ag2866
ag2869
ag2870
ag2871
ag2872
ag2873
ag2874
ag2876
ag2877
ag2878
ag2880
ag2886
ag2887
ag2890
ag2891
ag1762
ag2892
ag2893
ag2667
ag1770
ag2894
ag2668
ag2899
ag2900
ag2907
ag2908
aVgynecolog**
p4655
ag2916
ag2917
ag2918
ag2919
ag2920
ag2921
ag2922
ag2923
ag2924
ag2925
ag2926
ag2928
ag2929
ag2930
ag2931
ag2936
ag2937
ag2940
ag2942
ag2943
ag2944
ag2945
ag2946
ag2947
ag2948
ag2950
ag2951
ag2952
ag2953
ag2954
ag2955
ag2956
ag2957
ag2690
ag2958
ag2963
ag2965
ag2967
ag2968
ag2969
ag2972
ag2974
ag2975
ag2977
ag2978
ag2980
ag2981
aVmri
p4656
ag2983
ag2984
ag2985
ag2986
ag2024
ag2987
ag2988
ag2989
ag2990
ag2991
ag2994
ag2995
ag2998
ag2044
ag2045
ag2046
ag2047
ag2048
ag2049
ag2999
ag3000
ag3002
ag3003
ag3004
ag2066
ag3005
ag3006
ag3007
ag3008
ag3009
ag3011
ag3012
ag2078
ag3014
ag3015
ag3016
ag3018
ag2097
ag3020
ag3021
ag3023
ag3025
ag3026
ag3029
ag3030
ag3031
ag3033
ag3036
ag3037
ag3038
ag3039
ag3040
ag3041
ag3042
ag3043
ag3048
ag3051
ag162
ag3052
ag919
ag3055
ag3057
ag3058
ag3060
ag3061
ag3062
ag3063
ag3064
ag2234
ag3067
ag3068
ag3069
ag3070
ag3071
ag3072
ag3073
ag3074
ag3075
ag3076
ag3077
ag3078
ag3079
ag3080
ag3081
ag3085
ag3086
ag3087
ag3089
ag3090
ag3091
ag3092
ag3093
ag2324
ag3095
ag3100
ag3105
ag3106
ag3107
ag3108
ag3109
ag3110
ag3111
ag3112
asVConj
p4657
(lp4658
g4468
ag4469
ag3140
ag2450
aValtho
p4659
ag2369
ag3346
ag2380
ag2395
ag4478
ag1357
ag4484
ag3350
ag4488
ag2459
ag4491
ag665
ag4495
ag4496
ag667
ag668
ag2465
ag675
ag685
ag686
ag4499
ag3355
ag687
asVAnx
p4660
(lp4661
g1552
ag1564
ag1572
ag1575
ag1580
ag1584
ag1591
ag79
ag1595
ag1650
ag1660
ag1694
ag1709
ag1716
ag1717
ag1718
ag1720
ag1725
ag1726
ag1730
ag1743
ag1745
ag1774
ag1775
ag1776
ag1777
ag1779
ag1799
ag1810
ag1862
ag129
ag1901
ag1906
ag1913
ag1359
ag1921
ag132
ag1925
ag1934
ag1935
ag2000
ag2021
ag2022
ag2027
ag2043
ag2050
ag2063
ag2066
ag2084
ag151
ag152
ag2118
ag159
ag2124
ag2138
ag2139
ag2140
ag1501
ag2149
ag2150
ag2151
ag1502
ag2157
ag2158
ag2189
ag2192
ag2195
ag2197
ag2198
ag2199
ag2222
ag2235
ag2236
ag2237
ag2240
ag2241
aVterrify
p4662
ag2243
ag2244
ag2252
ag2262
ag2275
ag2279
ag2280
ag2281
ag2282
ag2294
ag2296
ag175
ag2317
ag2346
asVNegemo
p4663
(lp4664
g75
ag1537
ag1538
ag1543
ag1544
ag1550
ag1552
ag1553
ag1554
ag1555
ag1556
ag1557
ag1564
ag1565
ag1570
ag1571
ag1572
ag1573
ag1574
ag1575
ag1577
ag1578
ag1580
ag1581
ag1582
ag1583
ag1584
ag1585
ag1586
ag1589
ag1591
ag79
ag1594
ag1595
ag1596
ag1597
ag1598
ag1599
ag1600
ag1610
ag705
ag1611
ag1615
ag1616
ag1617
ag1620
ag1621
ag1622
ag1625
ag1634
ag1643
ag1649
ag1650
ag1652
ag105
ag1658
ag1659
ag1660
ag1023
ag1664
ag1665
ag1666
ag1667
ag1668
ag1669
ag1670
ag1671
ag1672
ag1673
ag4077
ag1677
ag1678
ag1679
ag1682
ag519
ag1684
ag1685
ag109
ag110
ag1688
ag1691
ag1692
ag1693
ag1694
ag1695
ag1696
ag1697
ag1700
ag1701
ag1703
ag1705
ag1706
ag1707
ag1708
ag1709
ag116
ag1710
ag1711
ag1712
ag1033
ag1034
ag1035
ag1713
ag1714
ag1715
ag1716
ag1717
ag1718
ag1719
ag1720
ag1722
ag1723
ag1724
ag1725
ag1726
ag1727
ag1728
ag1729
ag1730
ag1741
ag1743
ag1745
ag242
ag1747
ag1748
ag1752
ag1755
ag1756
ag1757
ag1758
ag1761
ag1762
ag1765
ag1767
ag1769
ag1770
ag1771
ag1774
ag1775
ag1776
ag1777
ag1779
ag1780
ag1782
ag1783
ag1785
ag1787
ag1791
ag1792
ag1796
ag122
ag1059
ag1799
ag1800
ag1810
ag1811
ag1061
ag1062
ag1812
ag1813
ag1063
ag1814
ag1815
ag1818
ag1819
ag1820
ag1833
ag1836
ag1840
ag1850
ag1852
ag1853
ag1854
ag1855
ag1859
ag1860
ag1861
ag1862
ag1868
ag1869
ag1870
ag1871
ag1872
ag1874
ag1089
ag1090
ag1875
ag1876
ag1091
ag1877
ag1878
ag1880
ag1881
ag1883
ag1887
ag1888
ag1892
ag129
ag1896
ag1900
ag1901
ag1902
ag1906
ag1910
ag1911
ag131
ag1912
ag1913
ag1914
ag1915
ag1359
ag1921
ag1922
aVinferior*
p4665
ag132
ag1925
ag1926
ag1928
ag1931
ag1932
ag1934
ag1935
ag1936
ag1937
ag1938
ag1939
ag1940
ag1941
ag1948
ag1954
ag1956
ag1957
ag1360
ag1958
ag1115
ag1960
ag1967
ag1968
ag1969
ag1970
ag1971
ag1972
ag1973
ag1118
ag1974
ag291
ag1982
ag1985
ag1986
ag1987
ag1988
ag1989
ag1990
ag1993
ag1994
ag1995
ag1998
ag1999
ag2000
ag1133
ag1134
ag1135
ag2001
ag1361
ag2002
ag2003
ag2004
ag2005
ag2006
ag2007
ag2008
ag2010
ag2012
ag2013
ag2014
ag2015
ag2016
ag2017
ag2019
ag139
ag2020
ag2021
ag2022
ag2024
ag2026
ag2027
ag2028
ag2029
ag2030
ag2042
ag2043
ag2044
ag2045
ag2046
ag2047
ag2049
ag2050
ag2052
ag2056
ag2058
ag2061
ag2062
ag2063
ag2064
ag2065
ag2066
ag2067
ag2068
aVpity*
p4666
ag2078
ag2083
ag2084
ag2087
ag1369
ag2093
ag2094
ag2095
ag2097
ag2098
ag2100
ag2101
ag835
ag2102
ag2103
ag2104
ag2108
ag843
ag1372
ag2109
ag151
ag2113
ag152
ag2114
ag2115
ag2118
ag2119
ag2123
ag159
ag2124
ag847
ag2128
ag2129
ag2130
ag2131
ag2132
ag2133
ag2134
ag2136
ag2138
ag2139
ag2140
ag2141
ag872
ag2142
ag2143
ag2145
ag2146
ag2147
ag2148
ag1501
ag2149
ag2150
ag2151
ag2155
ag2156
ag1502
ag2157
ag2158
ag2165
ag2167
ag2168
ag2169
ag2170
ag2173
ag2174
ag2175
ag2176
ag2177
ag2178
ag2179
ag2181
ag2182
ag2183
ag2186
ag2188
ag914
ag2189
ag2190
ag917
ag918
ag2192
ag2193
ag2195
ag2197
ag168
ag921
ag2198
ag2199
ag2200
ag2201
ag2202
ag1183
ag1184
ag2205
ag1185
ag2206
ag2207
ag1186
ag2208
ag2209
ag2210
ag2222
ag2228
ag2229
ag2230
ag2232
ag2233
ag2235
ag2236
ag2237
ag2238
ag2240
ag2241
ag4079
ag2243
ag2244
ag2246
ag2247
ag2249
ag2251
ag2252
ag2254
ag2255
ag2256
aVtragic*
p4667
ag2259
ag2262
ag2263
ag2264
ag2266
ag2267
ag2275
ag2276
ag2277
ag2278
ag2279
ag2280
ag2281
ag2282
ag2283
ag2284
ag2285
ag2286
ag2287
ag2288
ag2289
ag2290
ag2291
ag2292
ag937
ag2293
ag2294
ag2295
ag2296
ag175
aVuseless*
p4668
ag2299
ag2305
ag2306
ag2307
ag2310
ag2311
ag2312
ag2313
ag2317
ag2318
ag2319
ag2320
ag2321
ag2322
ag2323
ag2324
ag2326
ag2327
ag2328
ag2331
ag2332
ag2333
ag2334
ag2335
ag2337
ag2343
ag2344
ag2346
ag2347
ag1347
aVworthless*
p4669
ag2352
ag1382
asVSexual
p4670
(lp4671
g2777
ag2781
ag2624
ag2629
ag2630
ag2801
ag2807
ag2643
ag2646
ag2648
ag2649
ag2815
ag2826
ag2653
ag2654
ag2838
ag2839
ag2847
ag2659
ag2660
ag2881
ag2662
ag2663
ag2888
ag2902
ag1061
ag1062
ag1812
ag1813
ag1063
ag2905
ag2906
ag2674
ag2912
ag2931
ag2932
ag2933
ag2934
ag2935
ag2687
ag2688
ag1903
ag1904
ag1905
ag2938
ag2949
ag2959
ag2960
ag1952
ag2962
ag2964
ag1119
ag1120
ag1976
ag1121
ag2971
ag2973
ag2706
ag2711
ag2712
ag2714
ag2992
ag2993
ag2715
ag2055
ag2720
ag2061
ag3013
ag3014
ag2723
ag3017
ag145
ag146
ag147
ag3019
ag2726
ag3022
ag2102
ag2103
ag2104
ag2142
ag3032
ag3035
ag2170
ag3051
ag3053
ag3064
ag2756
ag2757
ag2758
ag2759
ag2768
ag3082
ag3088
ag2334
ag2773
as.